(dp0
S'high'
p1
(dp2
S'met'
p3
(lp4
I100
aI50
aI125
aI75
aI175
aI20
aI10
aI150
aI25
aI15
aI150
aI10
aI75
aI25
aI20
aI125
aI50
aI15
aI100
aI175
aI125
aI25
aI15
aI50
aI150
aI10
aI20
aI100
aI175
aI75
aI20
aI25
aI50
aI125
aI15
aI10
aI100
aI150
aI75
aI175
aI125
aI150
aI175
aI20
aI10
aI50
aI25
aI15
aI75
aI100
aI10
aI175
aI15
aI125
aI75
aI25
aI20
aI150
aI100
aI50
aI25
aI50
aI175
aI75
aI10
aI125
aI150
aI15
aI100
aI20
aI125
aI20
aI15
aI175
aI75
aI10
aI25
aI150
aI100
aI50
aI150
aI175
aI100
aI10
aI50
aI20
aI75
aI25
aI125
aI15
aI15
aI10
aI100
aI20
aI50
aI175
aI25
aI150
aI125
aI75
aI20
aI125
aI10
aI25
aI175
aI100
aI150
aI50
aI15
aI75
aI150
aI50
aI10
aI25
aI75
aI100
aI125
aI20
aI175
aI15
aI75
aI100
aI20
aI10
aI15
aI25
aI125
aI50
aI150
aI175
aI175
aI150
aI100
aI10
aI25
aI20
aI15
aI50
aI125
aI75
aI10
aI50
aI25
aI20
aI125
aI75
aI100
aI150
aI175
aI15
aI10
aI15
aI150
aI125
aI50
aI175
aI20
aI75
aI100
aI25
aI15
aI125
aI25
aI100
aI175
aI150
aI10
aI20
aI50
aI75
aI20
aI100
aI175
aI15
aI150
aI50
aI125
aI10
aI75
aI25
aI10
aI15
aI100
aI125
aI175
aI75
aI20
aI50
aI25
aI150
aI50
aI100
aI15
aI25
aI10
aI175
aI125
aI75
aI20
aI150
aI125
aI75
aI175
aI150
aI10
aI25
aI15
aI100
aI50
aI20
aI175
aI125
aI20
aI150
aI10
aI15
aI100
aI25
aI50
aI75
aI125
aI20
aI25
aI50
aI75
aI100
aI150
aI175
aI15
aI10
aI10
aI100
aI20
aI75
aI50
aI150
aI175
aI15
aI125
aI25
aI15
aI150
aI75
aI175
aI125
aI100
aI50
aI25
aI10
aI20
aI75
aI50
aI100
aI125
aI15
aI20
aI25
aI150
aI10
aI175
aI100
aI25
aI150
aI175
aI75
aI50
aI10
aI20
aI15
aI125
aI20
aI25
aI75
aI50
aI15
aI150
aI175
aI100
aI10
aI125
aI15
aI150
aI175
aI125
aI75
aI50
aI20
aI10
aI100
aI25
aI20
aI50
aI75
aI15
aI10
aI100
aI150
aI175
aI25
aI125
aI20
aI15
aI100
aI50
aI75
aI175
aI150
aI10
aI125
aI25
asS'ctau'
p5
(lp6
I1000
aI1000
aI1000
aI1000
aI1000
aI1000
aI1000
aI1000
aI1000
aI1000
aI1172
aI1172
aI1172
aI1172
aI1172
aI1172
aI1172
aI1172
aI1172
aI1172
aI853
aI853
aI853
aI853
aI853
aI853
aI853
aI853
aI853
aI853
aI621
aI621
aI621
aI621
aI621
aI621
aI621
aI621
aI621
aI621
aI1610
aI1610
aI1610
aI1610
aI1610
aI1610
aI1610
aI1610
aI1610
aI1610
aI452
aI452
aI452
aI452
aI452
aI452
aI452
aI452
aI452
aI452
aI2212
aI2212
aI2212
aI2212
aI2212
aI2212
aI2212
aI2212
aI2212
aI2212
aI329
aI329
aI329
aI329
aI329
aI329
aI329
aI329
aI329
aI329
aI3039
aI3039
aI3039
aI3039
aI3039
aI3039
aI3039
aI3039
aI3039
aI3039
aI240
aI240
aI240
aI240
aI240
aI240
aI240
aI240
aI240
aI240
aI4175
aI4175
aI4175
aI4175
aI4175
aI4175
aI4175
aI4175
aI4175
aI4175
aI5736
aI5736
aI5736
aI5736
aI5736
aI5736
aI5736
aI5736
aI5736
aI5736
aI174
aI174
aI174
aI174
aI174
aI174
aI174
aI174
aI174
aI174
aI127
aI127
aI127
aI127
aI127
aI127
aI127
aI127
aI127
aI127
aI7880
aI7880
aI7880
aI7880
aI7880
aI7880
aI7880
aI7880
aI7880
aI7880
aI10826
aI10826
aI10826
aI10826
aI10826
aI10826
aI10826
aI10826
aI10826
aI10826
aI92
aI92
aI92
aI92
aI92
aI92
aI92
aI92
aI92
aI92
aI14874
aI14874
aI14874
aI14874
aI14874
aI14874
aI14874
aI14874
aI14874
aI14874
aI67
aI67
aI67
aI67
aI67
aI67
aI67
aI67
aI67
aI67
aI49
aI49
aI49
aI49
aI49
aI49
aI49
aI49
aI49
aI49
aI20434
aI20434
aI20434
aI20434
aI20434
aI20434
aI20434
aI20434
aI20434
aI20434
aI36
aI36
aI36
aI36
aI36
aI36
aI36
aI36
aI36
aI36
aI28072
aI28072
aI28072
aI28072
aI28072
aI28072
aI28072
aI28072
aI28072
aI28072
aI26
aI26
aI26
aI26
aI26
aI26
aI26
aI26
aI26
aI26
aI38566
aI38566
aI38566
aI38566
aI38566
aI38566
aI38566
aI38566
aI38566
aI38566
aI19
aI19
aI19
aI19
aI19
aI19
aI19
aI19
aI19
aI19
aI52983
aI52983
aI52983
aI52983
aI52983
aI52983
aI52983
aI52983
aI52983
aI52983
aI14
aI14
aI14
aI14
aI14
aI14
aI14
aI14
aI14
aI14
aI72790
aI72790
aI72790
aI72790
aI72790
aI72790
aI72790
aI72790
aI72790
aI72790
aI10
aI10
aI10
aI10
aI10
aI10
aI10
aI10
aI10
aI10
aI100000
aI100000
aI100000
aI100000
aI100000
aI100000
aI100000
aI100000
aI100000
aI100000
asS'limit'
p7
(lp8
F0.023426929912269367
aF0.01138135681821609
aF0.046954461032425995
aF0.012282188688573966
aF0.23427165819714194
aF0.011812699078864569
aF0.00964201744588653
aF0.11321390242765593
aF0.01325967675639357
aF0.010564684663803349
aF0.13267438473624302
aF0.01024103000485935
aF0.013610089747605825
aF0.01419140997677524
aF0.012626450076412112
aF0.05420571195904907
aF0.012357953031390595
aF0.01128249299769422
aF0.02642035940552541
aF0.2756097466700175
aF0.04142542771313087
aF0.01284701696252783
aF0.010281569946159757
aF0.010837905065941185
aF0.09847307601572125
aF0.00938202502171437
aF0.011470688366637734
aF0.0212864651821703
aF0.20339231234541794
aF0.011410211098117093
aF0.012275016038530597
aF0.013691713152870025
aF0.010885656261582909
aF0.03440153019673991
aF0.011097712120861844
aF0.01014044918951286
aF0.018821349646479756
aF0.07922560555872832
aF0.010753027789912285
aF0.16289382886903342
aF0.0771717393144415
aF0.19140940753324065
aF0.4004224123810881
aF0.015792345709158183
aF0.012789297554088344
aF0.01581796003184988
aF0.017829732611953215
aF0.01409674015615591
aF0.0178580817322614
aF0.035450688221883
aF0.013527564715849441
aF0.14391139050542592
aF0.01466384493876347
aF0.03209038145883977
aF0.0115996463475085
aF0.017813058904594725
aF0.01608870228471807
aF0.0702668376264359
aF0.01870327241662871
aF0.01294468873885192
aF0.02477379454238507
aF0.0222512172727132
aF0.6156564176483721
aF0.02548582958738336
aF0.017667913482416392
aF0.11716466810784638
aF0.2925322536090137
aF0.0194848026761606
aF0.05107428741711519
aF0.02195730809430807
aF0.034238489590137235
aF0.02718420717004672
aF0.025106622187635094
aF0.14458727777757588
aF0.014726897438762496
aF0.023230500373613898
aF0.029683279694830752
aF0.07088089880880194
aF0.021491675536306324
aF0.01875476125424924
aF0.4686859891915756
aF0.9954461282769473
aF0.07814808901825615
aF0.026408389495707563
aF0.0335642235493907
aF0.0329099232163772
aF0.03888104184042611
aF0.03716560410849098
aF0.1871265746378427
aF0.029090926544674347
aF0.05772117242052171
aF0.0540909730735955
aF0.02946213958815205
aF0.06177949441224232
aF0.032990059542480694
aF0.1698698730459509
aF0.06608946860282526
aF0.0846824263575816
aF0.043738489892209846
aF0.022490926567295195
aF0.05229369459970815
aF0.31240818788208957
aF0.041844048241547964
aF0.05917301627874653
aF1.6736138066834347
aF0.12562168190711473
aF0.7831333253615301
aF0.053527389751347
aF0.04634400822439885
aF0.06243851340460196
aF1.3451591106520207
aF0.08914570732232291
aF0.06967512091661314
aF0.09843415682199379
aF0.10427945748161235
aF0.21006142258529284
aF0.537397033884825
aF0.08698480025935057
aF2.894356407605688
aF0.0769689622118537
aF0.0438529038710315
aF0.05123818034520892
aF0.20672495458116202
aF0.18488910666585606
aF0.1948318390929044
aF0.19847308702556757
aF0.07044595490589048
aF0.07280145876868616
aF0.12690414771291883
aF0.24703958242106694
aF0.45702365920569493
aF0.24917577022539036
aF0.11855174353509544
aF0.8558476734815903
aF0.6463044934436383
aF0.8540829414869033
aF0.8093118200516534
aF0.1989046307561076
aF0.1513711098575808
aF0.11154795900567169
aF0.11962319641127464
aF0.1535051301102077
aF0.16971487147803746
aF0.14958169463032286
aF0.9452640152084585
aF0.17942329148331065
aF0.3608734295418947
aF2.3704482701885956
aF5.111599337361648
aF0.13233846639404573
aF0.21033430264898947
aF0.2331363966382508
aF4.257099856740937
aF1.6981816381752988
aF0.2706570302200407
aF9.207334296682664
aF0.26381675852474
aF0.317383018837818
aF0.6373856668153878
aF0.2989645566618362
aF3.4845553772035123
aF0.4837626602114128
aF2.5850904059842237
aF0.40945581068113857
aF1.1736448017681302
aF0.7120922931582102
aF3.8730802990404354
aF3.673360161703736
aF0.7216830422094486
aF0.4163353480901767
aF0.4741118927224707
aF1.1434455641813581
aF16.784956224921558
aF0.4183724385822312
aF7.741344290828484
aF0.48617021388969833
aF3.0880735943018447
aF0.37746201500471926
aF0.5701741091609621
aF0.5369092090532963
aF20.31282526472416
aF17.961346959334524
aF2.187478283370713
aF2.4110769292605094
aF4.424160775075685
aF2.31554382602193
aF18.78243726996621
aF3.397321744473983
aF13.079214124582363
aF3.1128281525235293
aF21.962833615285522
aF19.301354492895555
aF129.64903702832248
aF94.49858134815129
aF148.6078501235867
aF28.0565920385231
aF20.104008034501625
aF20.335724496649135
aF130.41588807071784
aF22.85765445391722
aF5.668757997551318
aF1.038803058116445
aF30.871394324392245
aF14.18227921938078
aF0.6867603431226635
aF0.9760856829058351
aF0.761356735209999
aF2.0801554844355845
aF0.8863278556675127
aF0.8641614934770541
aF369.8968278850601
aF321.15310715558707
aF1801.5626678379754
aF335.9139879911393
aF1991.4933668281303
aF1751.8342519654955
aF317.7252770441921
aF1290.9739802843596
aF280.66957269023
aF325.9400674117547
aF10.494364690847055
aF1.588192749964111
aF1.7920810498319848
aF1.630175994550001
aF1.9084637007764433
aF3.8197487566169603
aF26.27668625993838
aF57.14637863827515
aF1.3986147044362502
aF1.2649096769382615
aF104797.11952825321
aF17718.64452126683
aF95415.71136741628
aF17842.3757742295
aF13942.066163162091
aF17908.57735718024
aF18511.905996535963
aF92386.78945334777
aF17743.30650650381
aF68356.01085369955
aF2.5881808856189887
aF48.813960347982125
aF3.5331343499966064
aF106.44921873411506
aF19.51360996354098
aF7.051812136432174
aF3.014602882859216
aF3.317271746482754
aF2.34020516186324
aF2.940783868097793
aF4081628.024420909
aF3148383.3786068596
aF4078121.26587362
aF4078531.1876690155
aF21283569.728382476
aF21985815.357642222
aF15755837.715978492
aF4083340.9067204646
aF24125058.90743561
aF4117862.236000446
aF13.12264039663358
aF6.186368234652841
aF91.24336036398115
aF198.86603850940773
aF6.564321796031352
aF5.608704884712582
aF4.354036238448591
aF5.460736604464
aF4.812733200280806
aF36.439575711330754
aF36557801469.16461
aF26193737525.625744
aF6632111219.464699
aF5205490004.911035
aF35389862385.832825
aF6632611671.509234
aF6642056015.248705
aF6632053388.407355
aF40204599573.62344
aF6632099126.094783
aF8.988466575648197
aF170.923751475645
aF372.5955934452783
aF68.12047132444245
aF12.259693911879207
aF10.47907448647222
aF10.21481581010761
aF8.133892346772878
aF24.542221821251058
aF11.56473562496813
aF3684271559147549.5
aF524062007416280.4
aF646036728445949.6
aF3566435256859502.0
aF4042596786499431.5
aF646055464495136.1
aF646066599869121.0
aF646129066439087.8
aF2639987685205994.0
aF646067380009231.0
aF19.144204611077626
aF16.836227345982348
aF45.94163403523825
aF19.604333833581514
aF23.005334366577138
aF698.0775908410224
aF320.74482133165816
aF15.234754332570404
aF128.04855379732842
aF21.62174313090905
asS'16.0'
p9
(lp10
F0.011981964111328125
aF0.006832143664360047
aF0.02396392822265625
aF0.006290531158447266
aF0.11981964111328125
aF0.007764739990234375
aF0.006595611572265625
aF0.05791282653808594
aF0.008936309814453125
aF0.0072888159751892095
aF0.06789779663085938
aF0.007022857666015625
aF0.006977251172065735
aF0.009567108154296875
aF0.008304672241210937
aF0.0280093252658844
aF0.007418593764305115
aF0.00777294397354126
aF0.01347970962524414
aF0.14078807830810547
aF0.021218061447143555
aF0.00861581802368164
aF0.007073647975921631
aF0.006481477618217469
aF0.05042409896850586
aF0.00640869140625
aF0.007533340454101562
aF0.010883617401123048
aF0.10384368896484375
aF0.005841207504272462
aF0.007990548610687256
aF0.00912320613861084
aF0.0065389186143875126
aF0.017764472961425783
aF0.007556195259094238
aF0.006908035278320313
aF0.009635496139526368
aF0.04043912887573242
aF0.005491733551025391
aF0.0833745002746582
aF0.03986912965774536
aF0.09785270690917969
aF0.20469188690185547
aF0.010438690185546875
aF0.008794991970062256
aF0.009459453821182252
aF0.012053022384643555
aF0.009752082824707032
aF0.009136247634887696
aF0.018172645568847658
aF0.009094009399414063
aF0.0736391544342041
aF0.0099542236328125
aF0.01646430492401123
aF0.005941057205200196
aF0.0117242431640625
aF0.010444631576538086
aF0.035945892333984375
aF0.0095855712890625
aF0.007770463824272156
aF0.016772383451461793
aF0.013313305377960206
aF0.3155250549316406
aF0.013030385971069336
aF0.01213681995868683
aF0.059909820556640625
aF0.14977455139160156
aF0.013470649719238281
aF0.026210546493530273
aF0.014516115188598633
aF0.017523622512817385
aF0.017496103048324586
aF0.016764450073242187
aF0.07388877868652344
aF0.007538652420043946
aF0.015509450435638429
aF0.019250488281250002
aF0.03658875823020935
aF0.010983467102050781
aF0.011259841918945314
aF0.2396392822265625
aF0.5092334747314453
aF0.040373802185058594
aF0.018219977617263794
aF0.020086741447448733
aF0.021822261810302737
aF0.019870090484619143
aF0.025250548124313356
aF0.095855712890625
aF0.02025333046913147
aF0.03791122436523438
aF0.03534564971923828
aF0.015077304840087891
aF0.03936340808868408
aF0.020299482345581057
aF0.0868692398071289
aF0.041602253913879395
aF0.04343461990356445
aF0.022699296474456787
aF0.011482715606689453
aF0.03492884635925293
aF0.159759521484375
aF0.02885681390762329
aF0.04030857682228089
aF0.8547134399414062
aF0.06440305709838867
aF0.4015684127807617
aF0.031998646259307865
aF0.03221502900123596
aF0.031951904296875
aF0.6944293975830078
aF0.053428396582603455
aF0.04795551300048828
aF0.06704792976379395
aF0.053458794951438904
aF0.10733842849731445
aF0.27458667755126953
aF0.05812785625457764
aF1.4777755737304688
aF0.0534595012664795
aF0.022699296474456787
aF0.026495307683944702
aF0.1320659637451172
aF0.11665792465209962
aF0.12357673645019532
aF0.1336219310760498
aF0.03619551658630371
aF0.047187995910644535
aF0.06490230560302734
aF0.12630987167358398
aF0.23364830017089844
aF0.1278076171875
aF0.06065869331359863
aF0.5911370515823364
aF0.5173571705818176
aF0.6738957166671753
aF0.6161184310913086
aF0.13241958618164062
aF0.07738351821899414
aF0.056914329528808594
aF0.08244037628173828
aF0.091966912150383
aF0.1158905029296875
aF0.1000946044921875
aF0.4832725524902344
aF0.09186172485351562
aF0.1847219467163086
aF1.21417236328125
aF2.6160621643066406
aF0.09172239303588868
aF0.14548301696777344
aF0.16214239597320557
aF2.1767234802246094
aF0.8666954040527344
aF0.16232889890670776
aF4.7129058837890625
aF0.17659920454025269
aF0.1635138988494873
aF0.32551002502441406
aF0.20427703857421875
aF2.9132513999938965
aF0.24762725830078125
aF2.1384806632995605
aF0.2096843719482422
aF0.5990982055664062
aF0.3654499053955078
aF3.255340576171875
aF3.0975842475891113
aF0.48092329502105713
aF0.21267986297607422
aF0.316705584526062
aF0.5894575119018555
aF8.587074279785156
aF0.29036378860473633
aF3.9540481567382812
aF0.2907906174659729
aF1.5816192626953125
aF0.26208722591400146
aF0.2915611267089844
aF0.36716461181640625
aF17.21181869506836
aF15.064697265625
aF1.118316650390625
aF1.236830711364746
aF2.2688615322113037
aF1.182220458984375
aF15.705406188964844
aF2.1191349029541016
aF10.753800392150879
aF1.5896072387695312
aF13.116016387939453
aF9.865150451660156
aF104.33099746704102
aF74.15672302246094
aF121.69864654541016
aF14.453821182250977
aF10.264549255371094
aF10.384368896484375
aF102.5969123840332
aF11.725797653198242
aF2.895641326904297
aF0.5312004089355469
aF15.907278060913086
aF7.2690582275390625
aF0.47676849365234375
aF0.667572021484375
aF0.5306395292282104
aF1.0624008178710938
aF0.5301965475082397
aF0.5760653018951416
aF190.56434631347656
aF164.6430492401123
aF1422.94921875
aF171.74148559570312
aF1600.2082824707031
aF1391.754150390625
aF162.15591430664062
aF1009.9130630493164
aF166.9734001159668
aF167.05245971679688
aF5.381016731262207
aF1.0582919120788574
aF1.22833251953125
aF0.9716377258300781
aF0.9745330810546875
aF1.9596538543701172
aF13.4197998046875
aF29.472875595092773
aF0.9714975357055664
aF0.8749785423278809
aF84004.30679321289
aF9066.352844238281
aF75347.13745117188
aF9106.292724609375
aF8325.414657592773
aF9146.232604980469
aF9465.751647949219
aF73315.62042236328
aF9066.352844238281
aF53422.93739318848
aF1.7964563369750977
aF24.962425231933594
aF1.8052825927734375
aF54.3182373046875
aF9.984970092773438
aF3.6145591735839844
aF1.8031353950500488
aF2.27508544921875
aF1.619929313659668
aF1.9601860046386719
aF2086858.7493896484
aF1869729.995727539
aF2086858.7493896484
aF2086858.7493896484
aF16899871.826171875
aF17342193.603515625
aF12294593.811035156
aF2086858.7493896484
aF19351181.030273438
aF2106828.6895751953
aF6.70989990234375
aF4.229736328125
aF46.72966003417969
aF101.99837684631348
aF3.354949951171875
aF3.3540186882019043
aF3.012310028076172
aF3.649282455444336
aF3.3432540893554688
aF18.611984252929688
aF28854248046.875
aF20465965270.996094
aF3394889831.5429688
aF3097612380.9814453
aF28133316040.039062
aF3394889831.5429688
aF3394889831.5429688
aF3394889831.5429688
aF32197471618.652344
aF3394889831.5429688
aF6.253053665161133
aF87.46833801269531
aF191.14656448364258
aF34.94739532470703
aF6.270561218261719
aF6.259589195251465
aF6.818944931030273
aF5.6345367431640625
aF12.541122436523438
aF7.904052734375
aF2910128784179687.5
aF311621665954589.9
aF331293940544128.44
aF2833213806152344.0
aF3250579833984375.0
aF331293940544128.44
aF331293940544128.44
aF331293940544128.44
aF2058856582641601.5
aF331293940544128.44
aF12.772488594055176
aF11.721752166748047
aF23.464679718017578
aF11.725051403045654
aF11.742324829101562
aF357.46192932128906
aF163.75350952148438
aF10.532249450683594
aF65.50140380859375
aF14.79339599609375
asS'84.0'
p11
(lp12
F0.04641952812671662
aF0.019993267953395844
aF0.09283905476331711
aF0.02437025159597397
aF0.46419528126716614
aF0.01856816530227661
aF0.01491733193397522
aF0.22436104714870453
aF0.020851616859436036
aF0.016366789340972902
aF0.26304399967193604
aF0.015883637666702272
aF0.026992857456207275
aF0.0222668194770813
aF0.01980903625488281
aF0.10777723789215088
aF0.02170942723751068
aF0.017408883571624758
aF0.05243217349052429
aF0.5454294681549072
aF0.08187037706375122
aF0.020177006721496582
aF0.01592458724975586
aF0.019049379229545596
aF0.1953488439321518
aF0.014569312334060669
aF0.018014808893203737
aF0.04216440618038178
aF0.403921902179718
aF0.022629520297050478
aF0.019354864358901977
aF0.021573894023895264
aF0.019135187566280368
aF0.06835601329803467
aF0.017196131944656374
aF0.015783421993255616
aF0.03732903599739075
aF0.15729650855064392
aF0.02127561718225479
aF0.32300254702568054
aF0.15341265499591827
aF0.379092812538147
aF0.7930002808570862
aF0.024772851467132567
aF0.01974885702133179
aF0.027801796793937683
aF0.027945728302001954
aF0.021685807704925536
aF0.03553735911846161
aF0.07040295004844666
aF0.021111838817596436
aF0.28528669476509094
aF0.022883801460266112
aF0.06369537711143494
aF0.023016349971294404
aF0.028249704837799074
aF0.025523855686187744
aF0.13925857841968536
aF0.03713562190532684
aF0.022532814741134645
aF0.03874571621417999
aF0.03912845551967621
aF1.2223808765411377
aF0.05068443417549134
aF0.027252817153930665
aF0.23303186893463135
aF0.5802441239356995
aF0.0299634724855423
aF0.10154271870851517
aF0.034321993589401245
aF0.06788855791091919
aF0.04331949949264527
aF0.03930338323116303
aF0.28625375032424927
aF0.029205620288848877
aF0.03649033010005951
aF0.047437846660614014
aF0.14079008996486664
aF0.04255123436450958
aF0.03175446391105652
aF0.9321274757385254
aF1.9728299379348755
aF0.1553545743227005
aF0.04076598882675171
aF0.05903591513633728
aF0.051406717300415045
aF0.0769790530204773
aF0.057970267534255986
aF0.37135621905326843
aF0.04476157128810883
aF0.09145719408988953
aF0.08580228090286256
aF0.058411240577697754
aF0.0996048390865326
aF0.054322242736816406
aF0.3378961980342865
aF0.10364480018615724
aF0.1682707965373993
aF0.0867624282836914
aF0.04466444253921509
aF0.08176261186599731
aF0.6189270615577698
aF0.06458884477615356
aF0.09220467805862427
aF3.3112597465515137
aF0.2495049685239792
aF1.5535458326339722
aF0.09404558539390565
aF0.07119793891906738
aF0.12378540635108948
aF2.6720988750457764
aF0.1570286601781845
aF0.10722426176071168
aF0.1533701539039612
aF0.20681577920913696
aF0.41584160923957825
aF1.0637809038162231
aF0.13606762886047363
aF5.748119354248047
aF0.11805608272552491
aF0.0867624282836914
aF0.10195144265890121
aF0.31970274448394775
aF0.2975537061691284
aF0.30386404991149907
aF0.27674455642700196
aF0.14022566378116608
aF0.1167220711708069
aF0.2514391243457794
aF0.49130886793136597
aF0.905180811882019
aF0.4951416254043579
aF0.23499886691570282
aF1.1453132629394531
aF0.852637529373169
aF1.1112139225006104
aF1.0696640014648438
aF0.3136116564273834
aF0.2997927963733673
aF0.22138027846813202
aF0.18432935476303103
aF0.27029523253440857
aF0.2634617328643799
aF0.23430480957031252
aF1.8797904253005981
aF0.35588306188583374
aF0.7156344056129456
aF4.703845500946045
aF10.134930610656738
aF0.20307934284210205
aF0.32444629073143005
aF0.357133150100708
aF8.432881236076355
aF3.371194362640381
aF0.47709256410598755
aF18.258347511291504
aF0.4123344421386719
aF0.6291860342025757
aF1.2661398649215698
aF0.4643968343734741
aF4.401040077209473
aF0.9593369364738464
aF3.3383965492248535
aF0.8123417496681213
aF2.3303186893463135
aF1.4157955646514893
aF4.878984451293945
aF4.593958854675293
aF1.1372523307800293
aF0.8239466547966003
aF0.7413550615310669
aF2.268176794052124
aF33.26732873916626
aF0.6412183046340942
aF15.318443775177002
aF0.8546478152275085
aF6.127377510070801
aF0.5828060507774353
aF1.1295418739318848
aF0.8347001671791077
aF25.413389205932617
aF22.584976196289062
aF4.332489490509033
aF4.784921169281006
aF8.777533769607544
aF4.580060005187988
aF23.686683654785156
aF5.551488399505615
aF16.96757698059082
aF6.158324241638184
aF38.71657609939575
aF38.21874380111694
aF167.7387237548828
aF125.59817314147949
aF190.04571914672852
aF55.61694145202637
aF39.92612600326538
aF40.23025989532471
aF171.75848007202148
aF45.36353588104248
aF11.263207197189331
aF2.0579323768615723
aF61.209702491760254
aF28.161180019378662
aF1.060194969177246
aF1.5176366567611694
aF1.168607473373413
aF4.1158647537231445
aF1.5582735538482666
aF1.3484729528427124
aF733.2736015319824
aF636.9537830352783
aF2381.16512298584
aF665.3465747833252
aF2605.682373046875
aF2301.0704040527344
aF630.7395935058594
aF1742.4039840698242
aF497.35307693481445
aF646.2750434875488
aF20.817513465881348
aF2.477285146713257
aF2.7924513816833496
aF2.868645429611206
aF3.7754549980163574
aF7.581303596496582
aF52.19913959503174
aF113.4088397026062
aF2.1453845500946045
aF1.9456987380981445
aF136818.7427520752
aF35124.10879135132
aF126085.99662780762
aF35278.84244918823
aF24798.383712768555
aF35433.573722839355
aF36671.42629623413
aF121584.56802368164
aF35124.10879135132
aF92170.6485748291
aF3.967163562774658
aF96.70735001564026
aF6.993875503540039
aF211.28222942352295
aF38.6829400062561
aF14.00322437286377
aF5.299502849578857
aF5.17210578918457
aF3.6022534370422363
aF4.5884690284729
aF8084734.678268433
aF5569246.292114258
aF8084734.678268433
aF8084734.678268433
aF28026273.727416992
aF29020448.684692383
aF21211875.915527344
aF8084734.678268433
aF31514842.987060547
aF8162100.315093994
aF26.09956979751587
aF9.615745544433594
aF181.0361623764038
aF394.60062980651855
aF13.049784898757935
aF9.857625007629395
aF6.69850492477417
aF8.520564079284668
aF7.382999420166016
aF72.10500240325928
aF48284736633.30078
aF35288913726.80664
aF13152199983.596802
aF9226661682.128906
aF46514495849.609375
aF13152199983.596802
aF13205139636.993408
aF13152199983.596802
aF52440376281.73828
aF13152199983.596802
aF13.794976234436035
aF338.86256217956543
aF739.4877910614014
aF135.39029359817505
aF24.390668869018555
aF18.39723825454712
aF15.921282768249512
aF12.497190475463867
aF48.58577251434326
aF17.96881866455078
aF4869813156127930.0
aF928207683563232.4
aF1281675338745117.2
aF4684321975708008.0
aF5293047332763672.0
aF1281675338745117.2
aF1281675338745117.2
aF1281675338745117.2
aF3552147293090820.5
aF1281675338745117.2
aF29.821975231170654
aF25.85957145690918
aF91.27081632614136
aF34.46049928665161
aF45.67424774169922
aF1384.8493099212646
aF636.9537830352783
aF23.420671463012695
aF253.76009941101074
aF33.630828857421875
asS'50.0'
p13
(lp14
F0.0234375
aF0.011376953125
aF0.046875
aF0.012304687500000001
aF0.234375
aF0.011796875
aF0.0096484375
aF0.11328125
aF0.01328125
aF0.0105859375
aF0.1328125
aF0.0102734375
aF0.01357421875
aF0.01421875
aF0.0126171875
aF0.05419921875
aF0.012353515625
aF0.0112890625
aF0.0263671875
aF0.275390625
aF0.04150390625
aF0.0128515625
aF0.0102734375
aF0.010839843750000001
aF0.0986328125
aF0.009375
aF0.0114453125
aF0.0212890625
aF0.203125
aF0.011425781250000001
aF0.012265625
aF0.013671875
aF0.010888671875
aF0.034375
aF0.01109375
aF0.01015625
aF0.01884765625
aF0.0791015625
aF0.0107421875
aF0.1630859375
aF0.0771484375
aF0.19140625
aF0.400390625
aF0.015859375000000002
aF0.0127734375
aF0.0158203125
aF0.017890625
aF0.0140625
aF0.01787109375
aF0.035546875
aF0.013515625
aF0.14404296875
aF0.014687500000000001
aF0.032031250000000004
aF0.01162109375
aF0.017812500000000002
aF0.01609375
aF0.0703125
aF0.018750000000000003
aF0.012939453125
aF0.024804687500000002
aF0.022265625
aF0.6171875
aF0.02548828125
aF0.017626953125
aF0.1171875
aF0.29296875
aF0.01953125
aF0.05126953125
aF0.02197265625
aF0.03427734375
aF0.027246093750000002
aF0.025097656250000003
aF0.14453125
aF0.014746093750000001
aF0.0232421875
aF0.029687500000000002
aF0.07080078125
aF0.021484375
aF0.018750000000000003
aF0.46875
aF0.99609375
aF0.078125
aF0.0263671875
aF0.03359375
aF0.03291015625
aF0.038867187500000004
aF0.03720703125
aF0.1875
aF0.0291015625
aF0.0578125
aF0.054101562500000006
aF0.029492187500000003
aF0.06171875
aF0.033007812500000004
aF0.169921875
aF0.06601562500000001
aF0.0849609375
aF0.04345703125
aF0.0224609375
aF0.05234375
aF0.3125
aF0.0419921875
aF0.0591796875
aF1.671875
aF0.1259765625
aF0.78125
aF0.053515625000000004
aF0.046289062500000006
aF0.06249999999999999
aF1.34375
aF0.08935546875
aF0.06953125
aF0.09843750000000001
aF0.10400390625
aF0.2099609375
aF0.537109375
aF0.087109375
aF2.890625
aF0.07695312500000001
aF0.04345703125
aF0.05126953125
aF0.20625000000000002
aF0.184375
aF0.19453125000000002
aF0.19843750000000002
aF0.07080078125
aF0.073046875
aF0.126953125
aF0.2470703125
aF0.45703125
aF0.24999999999999997
aF0.11865234375
aF0.85546875
aF0.646484375
aF0.85546875
aF0.80859375
aF0.1982421875
aF0.1513671875
aF0.111328125
aF0.11953125
aF0.15380859375
aF0.16953125000000002
aF0.15000000000000002
aF0.9453125
aF0.1796875
aF0.361328125
aF2.375
aF5.1171875
aF0.13203125000000002
aF0.2109375
aF0.2333984375
aF4.2578125
aF1.6953125
aF0.271484375
aF9.21875
aF0.2646484375
aF0.31640625
aF0.63671875
aF0.298828125
aF3.484375
aF0.484375
aF2.5859375
aF0.41015625
aF1.171875
aF0.71484375
aF3.875
aF3.671875
aF0.720703125
aF0.416015625
aF0.474609375
aF1.140625
aF16.796875
aF0.41796875
aF7.734375
aF0.486328125
aF3.09375
aF0.3779296875
aF0.5703125
aF0.537109375
aF20.3125
aF17.9375
aF2.1875
aF2.40625
aF4.4140625
aF2.3125
aF18.8125
aF3.40625
aF13.0625
aF3.109375
aF22.03125
aF19.296875
aF129.53125
aF94.375
aF148.125
aF27.96875
aF20.078125
aF20.3125
aF130.625
aF22.8125
aF5.6640625
aF1.0390625
aF30.78125
aF14.21875
aF0.6875
aF0.9765625
aF0.759765625
aF2.078125
aF0.88671875
aF0.86328125
aF368.75
aF320.3125
aF1800.0
aF335.9375
aF1993.75
aF1750.0
aF317.1875
aF1293.75
aF280.46875
aF325.0
aF10.46875
aF1.5859375
aF1.796875
aF1.625
aF1.90625
aF3.8125
aF26.25
aF57.03125
aF1.3984375
aF1.26171875
aF104687.5
aF17734.375
aF95312.5
aF17812.5
aF13984.375
aF17890.625
aF18515.625
aF92187.5
aF17734.375
aF68437.5
aF2.5859375
aF48.828125
aF3.53125
aF106.25
aF19.53125
aF7.0703125
aF3.015625
aF3.328125
aF2.3359375
aF2.9375
aF4082031.25
aF3140625.0
aF4082031.25
aF4082031.25
aF21250000.0
aF21937500.0
aF15750000.0
aF4082031.25
aF24187500.0
aF4121093.75
aF13.125
aF6.1875
aF91.40625
aF198.4375
aF6.5625
aF5.609375
aF4.34375
aF5.46875
aF4.8125
aF36.40625
aF36500000000.0
aF26125000000.0
aF6640625000.0
aF5203125000.0
aF35375000000.0
aF6640625000.0
aF6640625000.0
aF6640625000.0
aF40125000000.0
aF6640625000.0
aF8.96875
aF171.09375
aF371.875
aF68.359375
aF12.265625
aF10.46875
aF10.21875
aF8.125
aF24.53125
aF11.5625
aF3681250000000000.0
aF523437500000000.0
aF644531250000000.0
aF3562500000000000.0
aF4050000000000000.0
aF644531250000000.0
aF644531250000000.0
aF644531250000000.0
aF2637500000000000.0
aF644531250000000.0
aF19.140625
aF16.8125
aF45.8984375
aF19.609375
aF22.96875
aF699.21875
aF320.3125
aF15.1875
aF128.125
aF21.640625
asS'2.5'
p15
(lp16
F0.00677490234375
aF0.004533004760742187
aF0.0135498046875
aF0.0035568237304687503
aF0.0677490234375
aF0.005345458984375
aF0.00482421875
aF0.032745361328125
aF0.006329345703125
aF0.00537567138671875
aF0.03839111328125
aF0.00513671875
aF0.0039237976074218755
aF0.006776123046875
aF0.0057171630859375
aF0.015666961669921875
aF0.004922103881835938
aF0.00573272705078125
aF0.00762176513671875
aF0.0796051025390625
aF0.011997222900390625
aF0.0060743713378906255
aF0.0052169799804687505
aF0.004276657104492188
aF0.02851104736328125
aF0.0046875
aF0.0051861572265625
aF0.00615386962890625
aF0.0587158203125
aF0.0033027648925781253
aF0.00550994873046875
aF0.0063018798828125
aF0.004338455200195312
aF0.0099365234375
aF0.0055035400390625
aF0.0049591064453125
aF0.005448150634765625
aF0.02286529541015625
aF0.00310516357421875
aF0.04714202880859375
aF0.02230072021484375
aF0.055328369140625
aF0.1157379150390625
aF0.0071862792968750006
aF0.00648651123046875
aF0.006241607666015625
aF0.008665771484375
aF0.0072509765625
aF0.005165863037109375
aF0.010275268554687501
aF0.0064410400390625
aF0.041637420654296875
aF0.0071142578125
aF0.009259033203125001
aF0.003359222412109375
aF0.0080712890625
aF0.007166748046875
aF0.02032470703125
aF0.005419921875000001
aF0.0051555633544921875
aF0.012111663818359375
aF0.00878448486328125
aF0.17840576171875
aF0.007367706298828125
aF0.008951187133789062
aF0.03387451171875
aF0.084686279296875
aF0.01007080078125
aF0.014820098876953125
aF0.010042190551757812
aF0.009908294677734375
aF0.012026596069335939
aF0.0117645263671875
aF0.041778564453125
aF0.004262542724609375
aF0.01071319580078125
aF0.01298828125
aF0.020465850830078125
aF0.0062103271484375
aF0.007470703125
aF0.135498046875
aF0.287933349609375
aF0.0225830078125
aF0.013492584228515625
aF0.0132537841796875
aF0.015169525146484376
aF0.011235046386718751
aF0.018312835693359376
aF0.05419921875
aF0.015119171142578125
aF0.025970458984375
aF0.02409210205078125
aF0.00852508544921875
aF0.0272430419921875
aF0.013409423828125001
aF0.0491180419921875
aF0.0283660888671875
aF0.02455902099609375
aF0.012561798095703125
aF0.00649261474609375
aF0.024127197265625
aF0.09033203125
aF0.021488189697265625
aF0.029358673095703128
aF0.4832763671875
aF0.03641510009765625
aF0.225830078125
aF0.02111358642578125
aF0.024048614501953128
aF0.01806640625
aF0.388427734375
aF0.03525352478027344
aF0.03585205078125
aF0.048834228515625
aF0.030063629150390625
aF0.06069183349609375
aF0.1552581787109375
aF0.0401519775390625
aF0.8355712890625
aF0.0402801513671875
aF0.012561798095703125
aF0.014820098876953125
aF0.09184570312500001
aF0.07994384765625001
aF0.085107421875
aF0.090692138671875
aF0.020465850830078125
aF0.031672668457031254
aF0.0366973876953125
aF0.07141876220703125
aF0.132110595703125
aF0.072265625
aF0.034297943115234375
aF0.4043426513671875
aF0.43183135986328125
aF0.4979095458984375
aF0.4295654296875
aF0.092926025390625
aF0.04375457763671875
aF0.0321807861328125
aF0.061633300781250004
aF0.06068229675292969
aF0.08476562500000001
aF0.069140625
aF0.27325439453125
aF0.05194091796875
aF0.1044464111328125
aF0.6865234375
aF1.47918701171875
aF0.069110107421875
aF0.1087646484375
aF0.12216949462890625
aF1.23077392578125
aF0.49005126953125
aF0.10710906982421875
aF2.664794921875
aF0.12198638916015625
aF0.091461181640625
aF0.184051513671875
aF0.1494140625
aF2.592864990234375
aF0.1400146484375
aF1.87884521484375
aF0.118560791015625
aF0.3387451171875
aF0.206634521484375
aF2.883544921875
aF2.775421142578125
aF0.3321990966796875
aF0.1202545166015625
aF0.2187652587890625
aF0.3297119140625
aF4.8553466796875
aF0.218780517578125
aF2.2357177734375
aF0.19187164306640625
aF0.894287109375
aF0.1948699951171875
aF0.16485595703125
aF0.2685546875
aF15.472412109375
aF13.453125
aF0.63232421875
aF0.695556640625
aF1.27593994140625
aF0.66845703125
aF13.96240234375
aF1.3970947265625
aF9.4141845703125
aF0.8988037109375
aF8.60595703125
aF5.5780029296875
aF86.5228271484375
aF61.1962890625
aF102.41455078125
aF8.084716796875
aF5.8038330078125
aF5.87158203125
aF85.21240234375
aF6.59423828125
aF1.63726806640625
aF0.30035400390625
aF8.897705078125
aF4.110107421875
aF0.3544921875
aF0.48828125
aF0.3976898193359375
aF0.6007080078125
aF0.3498382568359375
aF0.397918701171875
aF106.591796875
aF92.59033203125
aF1181.25
aF97.10693359375
aF1339.55078125
aF1162.109375
aF91.68701171875
aF833.8623046875
aF109.55810546875
aF93.9453125
aF3.026123046875
aF0.73101806640625
aF0.8984375
aF0.64111328125
aF0.551025390625
aF1.10205078125
aF7.587890625
aF16.485595703125
aF0.73199462890625
aF0.65057373046875
aF70745.849609375
aF5126.3427734375
aF62548.828125
aF5148.92578125
aF5462.646484375
aF5171.5087890625
aF5352.1728515625
aF61218.26171875
aF5126.3427734375
aF44110.107421875
aF1.35357666015625
aF14.1143798828125
aF1.020751953125
aF30.712890625
aF5.645751953125
aF2.04376220703125
aF1.18975830078125
aF1.6640625
aF1.2044677734375
aF1.35400390625
aF1179962.158203125
aF1226806.640625
aF1179962.158203125
aF1179962.158203125
aF14111328.125
aF14396484.375
aF10151367.1875
aF1179962.158203125
aF16250976.5625
aF1191253.662109375
aF3.7939453125
aF3.09375
aF26.422119140625
aF57.36083984375
aF1.89697265625
aF2.21307373046875
aF2.23974609375
aF2.520751953125
aF2.51904296875
aF10.523681640625
aF23953125000.0
aF16838378906.25
aF1919555664.0625
aF2032470703.125
aF23491210937.5
aF1919555664.0625
aF1919555664.0625
aF1919555664.0625
aF27115722656.25
aF1919555664.0625
aF4.7296142578125
aF49.456787109375
aF107.4951171875
aF19.7601318359375
aF3.5455322265625
aF4.1302490234375
aF4.710205078125
aF4.189453125
aF7.091064453125
aF5.78125
aF2415820312500000.0
aF204467773437500.0
aF186309814453125.0
aF2365722656250000.0
aF2721093750000000.0
aF186309814453125.0
aF186309814453125.0
aF186309814453125.0
aF1699951171875000.0
aF186309814453125.0
aF8.8226318359375
aF8.865966796875
aF13.26751708984375
aF7.73651123046875
aF6.639404296875
aF202.117919921875
aF92.59033203125
aF7.8310546875
aF37.0361328125
aF10.8203125
asS'97.5'
p17
(lp18
F0.07107586860656738
aF0.03379708528518677
aF0.14215174317359924
aF0.03731483221054077
aF0.7107586860656738
aF0.02897784948348999
aF0.023142468929290772
aF0.34353336691856384
aF0.03260297536849976
aF0.025391130447387694
aF0.4027632474899292
aF0.02464157581329346
aF0.04116562008857727
aF0.03488178014755249
aF0.030827841758728027
aF0.16436631977558136
aF0.03669812083244324
aF0.02705828905105591
aF0.07996199727058412
aF0.8351414799690247
aF0.12586092948913574
aF0.03154817342758179
aF0.024659171104431152
aF0.03198412358760834
aF0.29911094903945923
aF0.022627618312835693
aF0.02811427116394043
aF0.06456058025360108
aF0.6160035133361816
aF0.03464948534965515
aF0.030148766040802
aF0.03391781806945801
aF0.031691455841064455
aF0.10424674749374391
aF0.02662815570831299
aF0.02463122606277466
aF0.05715684294700623
aF0.23988598585128784
aF0.03257643878459931
aF0.4945695996284485
aF0.23396287858486176
aF0.5804529190063477
aF1.2142127752304077
aF0.03851495504379272
aF0.03063800573348999
aF0.047314077615737915
aF0.04344790458679199
aF0.03354117155075073
aF0.05419646501541138
aF0.10779839754104614
aF0.03282309055328369
aF0.43682044744491577
aF0.03564478158950806
aF0.0971390187740326
aF0.03524178564548493
aF0.04424443244934082
aF0.039975230693817136
aF0.21322761476039886
aF0.0568606972694397
aF0.036851131916046144
aF0.060238909721374516
aF0.06636691689491273
aF1.8716645240783691
aF0.0772965967655182
aF0.042279508709907536
aF0.3553866446018219
aF0.8884483575820923
aF0.046286931633949285
aF0.15547846257686615
aF0.05336123704910278
aF0.10394846200942993
aF0.06771808862686157
aF0.0612809956073761
aF0.4383012056350708
aF0.044718566536903384
aF0.05705520510673523
aF0.07320728302001954
aF0.21471276879310608
aF0.06515287756919862
aF0.05129269361495972
aF1.4215465784072876
aF3.0207245349884033
aF0.2369244247674942
aF0.06324358582496643
aF0.10046939849853516
aF0.07992327809333802
aF0.11786748170852662
aF0.09029695391654968
aF0.568606972694397
aF0.06901918053627014
aF0.14351212978363037
aF0.13438276052474976
aF0.08943713307380677
aF0.155338454246521
aF0.08634117245674133
aF0.5153106451034546
aF0.14953927993774416
aF0.2576500177383423
aF0.13179191946983337
aF0.06811577677726746
aF0.12711832523345948
aF0.94767826795578
aF0.09959143400192261
aF0.1436219334602356
aF5.0700788497924805
aF0.3820328116416931
aF2.369244337081909
aF0.16005009412765503
aF0.10978219509124756
aF0.18953564763069153
aF4.075100421905518
aF0.2672369182109833
aF0.16665658950805665
aF0.23889586925506592
aF0.31540563702583313
aF0.6367213129997253
aF1.6288219690322876
aF0.21154766082763674
aF8.766203880310059
aF0.1823705077171326
aF0.13179191946983337
aF0.15548165142536163
aF0.44701595306396485
aF0.43938307762146
aF0.42972278594970703
aF0.3826586723327637
aF0.2147083580493927
aF0.1842457413673401
aF0.3849942982196808
aF0.7492735385894775
aF1.385979413986206
aF0.7581425905227661
aF0.3598215878009796
aF1.5320744514465332
aF1.1526869535446167
aF1.4662867784500122
aF1.4223783016204834
aF0.49211084842681885
aF0.4590316712856293
aF0.33761730790138245
aF0.2850999355316162
aF0.4599979817867279
aF0.4111519813537598
aF0.3642793893814087
aF2.8667855262756348
aF0.5449150204658508
aF1.0957529544830322
aF7.202354907989502
aF15.518231391906738
aF0.3131340026855469
aF0.5002732872962952
aF0.5527145266532898
aF12.912116050720215
aF5.141260147094727
aF0.8119329214096069
aF27.956509590148926
aF0.6422696709632874
aF0.9595439434051514
aF1.9309340715408325
aF0.7247264385223389
aF5.731875896453857
aF1.46890127658844
aF4.451985836029053
aF1.2438277006149292
aF3.553866386413574
aF2.167814016342163
aF6.3083953857421875
aF5.954501152038574
aF1.787953495979309
aF1.2615966796875
aF1.1526027917861938
aF3.459096670150757
aF50.93770503997803
aF0.9905403256416321
aF23.45503807067871
aF1.4544697999954224
aF9.382015228271484
aF0.8969937562942505
aF1.7295128107070923
aF1.3026129007339478
aF32.65578079223633
aF29.45145606994629
aF6.6337480545043945
aF7.297272682189941
aF13.38623046875
aF7.012819290161133
aF30.626243591308594
aF8.818351745605469
aF22.56709098815918
aF9.429398536682129
aF64.56373691558838
aF58.519134521484375
aF221.6252899169922
aF170.3565788269043
aF248.02112579345703
aF84.81894493103027
aF60.889577865600586
aF61.599087715148926
aF229.0024185180664
aF69.18193340301514
aF17.177021503448486
aF3.1510303020477295
aF93.34822654724121
aF43.11935901641846
aF1.6317405700683594
aF2.36838698387146
aF1.801910161972046
aF6.302060604095459
aF2.6519248485565186
aF2.096503734588623
aF1118.2832717895508
aF971.3901519775391
aF3190.496826171875
aF1018.7541007995605
aF3456.4334869384766
aF3091.5719985961914
aF961.9132041931152
aF2393.065071105957
aF850.0870704650879
aF985.6056213378906
aF31.747872829437256
aF3.8514955043792725
aF4.357831954956055
aF4.860421180725098
aF5.780837535858154
aF11.561912536621094
aF79.60660934448242
aF172.95483350753784
aF3.3141441345214844
aF3.0093882083892822
aF181489.84909057617
aF53780.741691589355
aF168941.23077392578
aF54017.66300201416
aF42385.95485687256
aF54254.57954406738
aF56149.935722351074
aF163130.8937072754
aF53780.741691589355
aF126136.79885864258
aF6.128389358520508
aF148.07473421096802
aF10.70876407623291
aF322.2172260284424
aF59.22989368438721
aF21.441221237182617
aF9.018880844116211
aF8.032804489135742
aF5.571560859680176
aF7.133804798126221
aF12379047.870635986
aF9519081.115722656
aF12379047.870635986
aF12379047.870635986
aF37603054.04663086
aF38884178.161621094
aF29132968.90258789
aF12379047.870635986
aF41859592.43774414
aF12497507.333755493
aF39.80330467224121
aF15.006099700927734
aF277.1958827972412
aF601.7880439758301
aF19.901652336120605
aF16.776052474975586
aF10.360494613647461
aF13.271993637084961
aF11.405099868774414
aF110.40452003479004
aF64696182250.97656
aF48569427490.234375
aF20138163566.589355
aF15770417213.439941
aF62493919372.55859
aF20138163566.589355
aF20138576030.7312
aF20138163566.589355
aF69562072753.90625
aF20138163566.589355
aF21.270877838134766
aF518.8538551330566
aF1127.7603149414062
aF207.30462074279785
aF37.197136878967285
aF31.309068202972412
aF24.799667358398438
aF19.269784927368164
aF74.39274311065674
aF28.041702270507812
aF6525009155273438.0
aF1586513423919677.8
aF1954626560211181.8
aF6293557357788086.0
aF7021218872070312.0
aF1954626560211181.8
aF1954626560211181.8
aF1954626560211181.8
aF4896069335937500.0
aF1954626560211181.8
aF46.45197868347168
aF39.87363052368164
aF139.19310569763184
aF58.64609241485596
aF69.65578079223633
aF2120.4299926757812
aF971.3901519775391
aF36.224464416503906
aF388.54808807373047
aF52.483458518981934
assS'all'
p19
(dp20
g3
(lp21
I100
aI50
aI125
aI75
aI175
aI20
aI10
aI150
aI25
aI15
aI150
aI10
aI75
aI25
aI20
aI125
aI50
aI15
aI100
aI175
aI125
aI25
aI15
aI50
aI150
aI10
aI20
aI100
aI175
aI75
aI20
aI25
aI50
aI125
aI15
aI10
aI100
aI150
aI75
aI175
aI125
aI150
aI175
aI20
aI10
aI50
aI25
aI15
aI75
aI100
aI10
aI175
aI15
aI125
aI75
aI25
aI20
aI150
aI100
aI50
aI25
aI50
aI175
aI75
aI10
aI125
aI150
aI15
aI100
aI20
aI125
aI20
aI15
aI175
aI75
aI10
aI25
aI150
aI100
aI50
aI150
aI175
aI100
aI10
aI50
aI20
aI75
aI25
aI125
aI15
aI15
aI10
aI100
aI20
aI50
aI175
aI25
aI150
aI125
aI75
aI20
aI125
aI10
aI25
aI175
aI100
aI150
aI50
aI15
aI75
aI150
aI50
aI10
aI25
aI75
aI100
aI125
aI20
aI175
aI15
aI75
aI100
aI20
aI10
aI15
aI25
aI125
aI50
aI150
aI175
aI175
aI150
aI100
aI10
aI25
aI20
aI15
aI50
aI125
aI75
aI10
aI50
aI25
aI20
aI125
aI75
aI100
aI150
aI175
aI15
aI10
aI15
aI150
aI125
aI50
aI175
aI20
aI75
aI100
aI25
aI15
aI125
aI25
aI100
aI175
aI150
aI10
aI20
aI50
aI75
aI20
aI100
aI175
aI15
aI150
aI50
aI125
aI10
aI75
aI25
aI10
aI15
aI100
aI125
aI175
aI75
aI20
aI50
aI25
aI150
aI50
aI100
aI15
aI25
aI10
aI175
aI125
aI75
aI20
aI150
aI125
aI75
aI175
aI150
aI10
aI25
aI15
aI100
aI50
aI20
aI175
aI125
aI20
aI150
aI10
aI15
aI100
aI25
aI50
aI75
aI125
aI20
aI25
aI50
aI75
aI100
aI150
aI175
aI15
aI10
aI10
aI100
aI20
aI75
aI50
aI150
aI175
aI15
aI125
aI25
aI15
aI150
aI75
aI175
aI125
aI100
aI50
aI25
aI10
aI20
aI75
aI50
aI100
aI125
aI15
aI20
aI25
aI150
aI10
aI175
aI100
aI25
aI150
aI175
aI75
aI50
aI10
aI20
aI15
aI125
aI20
aI25
aI75
aI50
aI15
aI150
aI175
aI100
aI10
aI125
aI15
aI150
aI175
aI125
aI75
aI50
aI20
aI10
aI100
aI25
aI20
aI50
aI75
aI15
aI10
aI100
aI150
aI175
aI25
aI125
aI20
aI15
aI100
aI50
aI75
aI175
aI150
aI10
aI125
aI25
asg5
(lp22
I1000
aI1000
aI1000
aI1000
aI1000
aI1000
aI1000
aI1000
aI1000
aI1000
aI1172
aI1172
aI1172
aI1172
aI1172
aI1172
aI1172
aI1172
aI1172
aI1172
aI853
aI853
aI853
aI853
aI853
aI853
aI853
aI853
aI853
aI853
aI621
aI621
aI621
aI621
aI621
aI621
aI621
aI621
aI621
aI621
aI1610
aI1610
aI1610
aI1610
aI1610
aI1610
aI1610
aI1610
aI1610
aI1610
aI452
aI452
aI452
aI452
aI452
aI452
aI452
aI452
aI452
aI452
aI2212
aI2212
aI2212
aI2212
aI2212
aI2212
aI2212
aI2212
aI2212
aI2212
aI329
aI329
aI329
aI329
aI329
aI329
aI329
aI329
aI329
aI329
aI3039
aI3039
aI3039
aI3039
aI3039
aI3039
aI3039
aI3039
aI3039
aI3039
aI240
aI240
aI240
aI240
aI240
aI240
aI240
aI240
aI240
aI240
aI4175
aI4175
aI4175
aI4175
aI4175
aI4175
aI4175
aI4175
aI4175
aI4175
aI5736
aI5736
aI5736
aI5736
aI5736
aI5736
aI5736
aI5736
aI5736
aI5736
aI174
aI174
aI174
aI174
aI174
aI174
aI174
aI174
aI174
aI174
aI127
aI127
aI127
aI127
aI127
aI127
aI127
aI127
aI127
aI127
aI7880
aI7880
aI7880
aI7880
aI7880
aI7880
aI7880
aI7880
aI7880
aI7880
aI10826
aI10826
aI10826
aI10826
aI10826
aI10826
aI10826
aI10826
aI10826
aI10826
aI92
aI92
aI92
aI92
aI92
aI92
aI92
aI92
aI92
aI92
aI14874
aI14874
aI14874
aI14874
aI14874
aI14874
aI14874
aI14874
aI14874
aI14874
aI67
aI67
aI67
aI67
aI67
aI67
aI67
aI67
aI67
aI67
aI49
aI49
aI49
aI49
aI49
aI49
aI49
aI49
aI49
aI49
aI20434
aI20434
aI20434
aI20434
aI20434
aI20434
aI20434
aI20434
aI20434
aI20434
aI36
aI36
aI36
aI36
aI36
aI36
aI36
aI36
aI36
aI36
aI28072
aI28072
aI28072
aI28072
aI28072
aI28072
aI28072
aI28072
aI28072
aI28072
aI26
aI26
aI26
aI26
aI26
aI26
aI26
aI26
aI26
aI26
aI38566
aI38566
aI38566
aI38566
aI38566
aI38566
aI38566
aI38566
aI38566
aI38566
aI19
aI19
aI19
aI19
aI19
aI19
aI19
aI19
aI19
aI19
aI52983
aI52983
aI52983
aI52983
aI52983
aI52983
aI52983
aI52983
aI52983
aI52983
aI14
aI14
aI14
aI14
aI14
aI14
aI14
aI14
aI14
aI14
aI72790
aI72790
aI72790
aI72790
aI72790
aI72790
aI72790
aI72790
aI72790
aI72790
aI10
aI10
aI10
aI10
aI10
aI10
aI10
aI10
aI10
aI10
aI100000
aI100000
aI100000
aI100000
aI100000
aI100000
aI100000
aI100000
aI100000
aI100000
asg7
(lp23
F0.009203671138203777
aF0.009203671138203777
aF0.009203671138203777
aF0.009203671138203777
aF0.009203671138203777
aF0.009203671138203777
aF0.009203671138203777
aF0.009203671138203777
aF0.009203671138203777
aF0.009203671138203777
aF0.009788765088423988
aF0.009788765088423988
aF0.009788765088423988
aF0.009788765088423988
aF0.009788765088423988
aF0.009788765088423988
aF0.009788765088423988
aF0.009788765088423988
aF0.009788765088423988
aF0.009788765088423988
aF0.00894374077896743
aF0.00894374077896743
aF0.00894374077896743
aF0.00894374077896743
aF0.00894374077896743
aF0.00894374077896743
aF0.00894374077896743
aF0.00894374077896743
aF0.00894374077896743
aF0.00894374077896743
aF0.009668126741890921
aF0.009668126741890921
aF0.009668126741890921
aF0.009668126741890921
aF0.009668126741890921
aF0.009668126741890921
aF0.009668126741890921
aF0.009668126741890921
aF0.009668126741890921
aF0.009668126741890921
aF0.01220060406952464
aF0.01220060406952464
aF0.01220060406952464
aF0.01220060406952464
aF0.01220060406952464
aF0.01220060406952464
aF0.01220060406952464
aF0.01220060406952464
aF0.01220060406952464
aF0.01220060406952464
aF0.012919921629838335
aF0.012919921629838335
aF0.012919921629838335
aF0.012919921629838335
aF0.012919921629838335
aF0.012919921629838335
aF0.012919921629838335
aF0.012919921629838335
aF0.012919921629838335
aF0.012919921629838335
aF0.016877806951375925
aF0.016877806951375925
aF0.016877806951375925
aF0.016877806951375925
aF0.016877806951375925
aF0.016877806951375925
aF0.016877806951375925
aF0.016877806951375925
aF0.016877806951375925
aF0.016877806951375925
aF0.022253550593541286
aF0.022253550593541286
aF0.022253550593541286
aF0.022253550593541286
aF0.022253550593541286
aF0.022253550593541286
aF0.022253550593541286
aF0.022253550593541286
aF0.022253550593541286
aF0.022253550593541286
aF0.025276216373384876
aF0.025276216373384876
aF0.025276216373384876
aF0.025276216373384876
aF0.025276216373384876
aF0.025276216373384876
aF0.025276216373384876
aF0.025276216373384876
aF0.025276216373384876
aF0.025276216373384876
aF0.05233048108885217
aF0.05233048108885217
aF0.05233048108885217
aF0.05233048108885217
aF0.05233048108885217
aF0.05233048108885217
aF0.05233048108885217
aF0.05233048108885217
aF0.05233048108885217
aF0.05233048108885217
aF0.040135111655206474
aF0.040135111655206474
aF0.040135111655206474
aF0.040135111655206474
aF0.040135111655206474
aF0.040135111655206474
aF0.040135111655206474
aF0.040135111655206474
aF0.040135111655206474
aF0.040135111655206474
aF0.06685705642882066
aF0.06685705642882066
aF0.06685705642882066
aF0.06685705642882066
aF0.06685705642882066
aF0.06685705642882066
aF0.06685705642882066
aF0.06685705642882066
aF0.06685705642882066
aF0.06685705642882066
aF0.18133253841221786
aF0.18133253841221786
aF0.18133253841221786
aF0.18133253841221786
aF0.18133253841221786
aF0.18133253841221786
aF0.18133253841221786
aF0.18133253841221786
aF0.18133253841221786
aF0.18133253841221786
aF0.9222802826256098
aF0.9222802826256098
aF0.9222802826256098
aF0.9222802826256098
aF0.9222802826256098
aF0.9222802826256098
aF0.9222802826256098
aF0.9222802826256098
aF0.9222802826256098
aF0.9222802826256098
aF0.11489354124371781
aF0.11489354124371781
aF0.11489354124371781
aF0.11489354124371781
aF0.11489354124371781
aF0.11489354124371781
aF0.11489354124371781
aF0.11489354124371781
aF0.11489354124371781
aF0.11489354124371781
aF0.20260882768709693
aF0.20260882768709693
aF0.20260882768709693
aF0.20260882768709693
aF0.20260882768709693
aF0.20260882768709693
aF0.20260882768709693
aF0.20260882768709693
aF0.20260882768709693
aF0.20260882768709693
aF4.503685035909927
aF4.503685035909927
aF4.503685035909927
aF4.503685035909927
aF4.503685035909927
aF4.503685035909927
aF4.503685035909927
aF4.503685035909927
aF4.503685035909927
aF4.503685035909927
aF0.36349476268083236
aF0.36349476268083236
aF0.36349476268083236
aF0.36349476268083236
aF0.36349476268083236
aF0.36349476268083236
aF0.36349476268083236
aF0.36349476268083236
aF0.36349476268083236
aF0.36349476268083236
aF23.79340095752083
aF23.79340095752083
aF23.79340095752083
aF23.79340095752083
aF23.79340095752083
aF23.79340095752083
aF23.79340095752083
aF23.79340095752083
aF23.79340095752083
aF23.79340095752083
aF170.52409264006445
aF170.52409264006445
aF170.52409264006445
aF170.52409264006445
aF170.52409264006445
aF170.52409264006445
aF170.52409264006445
aF170.52409264006445
aF170.52409264006445
aF170.52409264006445
aF0.6614737781861142
aF0.6614737781861142
aF0.6614737781861142
aF0.6614737781861142
aF0.6614737781861142
aF0.6614737781861142
aF0.6614737781861142
aF0.6614737781861142
aF0.6614737781861142
aF0.6614737781861142
aF2279.0709816855083
aF2279.0709816855083
aF2279.0709816855083
aF2279.0709816855083
aF2279.0709816855083
aF2279.0709816855083
aF2279.0709816855083
aF2279.0709816855083
aF2279.0709816855083
aF2279.0709816855083
aF1.2133236107271144
aF1.2133236107271144
aF1.2133236107271144
aF1.2133236107271144
aF1.2133236107271144
aF1.2133236107271144
aF1.2133236107271144
aF1.2133236107271144
aF1.2133236107271144
aF1.2133236107271144
aF120153.7674747496
aF120153.7674747496
aF120153.7674747496
aF120153.7674747496
aF120153.7674747496
aF120153.7674747496
aF120153.7674747496
aF120153.7674747496
aF120153.7674747496
aF120153.7674747496
aF2.246442554391944
aF2.246442554391944
aF2.246442554391944
aF2.246442554391944
aF2.246442554391944
aF2.246442554391944
aF2.246442554391944
aF2.246442554391944
aF2.246442554391944
aF2.246442554391944
aF27729639.46017392
aF27729639.46017392
aF27729639.46017392
aF27729639.46017392
aF27729639.46017392
aF27729639.46017392
aF27729639.46017392
aF27729639.46017392
aF27729639.46017392
aF27729639.46017392
aF4.18687239472483
aF4.18687239472483
aF4.18687239472483
aF4.18687239472483
aF4.18687239472483
aF4.18687239472483
aF4.18687239472483
aF4.18687239472483
aF4.18687239472483
aF4.18687239472483
aF46026226312.9288
aF46026226312.9288
aF46026226312.9288
aF46026226312.9288
aF46026226312.9288
aF46026226312.9288
aF46026226312.9288
aF46026226312.9288
aF46026226312.9288
aF46026226312.9288
aF7.816299916621791
aF7.816299916621791
aF7.816299916621791
aF7.816299916621791
aF7.816299916621791
aF7.816299916621791
aF7.816299916621791
aF7.816299916621791
aF7.816299916621791
aF7.816299916621791
aF4639362982143354.0
aF4639362982143354.0
aF4639362982143354.0
aF4639362982143354.0
aF4639362982143354.0
aF4639362982143354.0
aF4639362982143354.0
aF4639362982143354.0
aF4639362982143354.0
aF4639362982143354.0
aF14.64108353794126
aF14.64108353794126
aF14.64108353794126
aF14.64108353794126
aF14.64108353794126
aF14.64108353794126
aF14.64108353794126
aF14.64108353794126
aF14.64108353794126
aF14.64108353794126
asg9
(lp24
F0.006258368492126465
aF0.006258368492126465
aF0.006258368492126465
aF0.006258368492126465
aF0.006258368492126465
aF0.006258368492126465
aF0.006258368492126465
aF0.006258368492126465
aF0.006258368492126465
aF0.006258368492126465
aF0.006664721965789795
aF0.006664721965789795
aF0.006664721965789795
aF0.006664721965789795
aF0.006664721965789795
aF0.006664721965789795
aF0.006664721965789795
aF0.006664721965789795
aF0.006664721965789795
aF0.006664721965789795
aF0.006077014207839966
aF0.006077014207839966
aF0.006077014207839966
aF0.006077014207839966
aF0.006077014207839966
aF0.006077014207839966
aF0.006077014207839966
aF0.006077014207839966
aF0.006077014207839966
aF0.006077014207839966
aF0.006534509658813477
aF0.006534509658813477
aF0.006534509658813477
aF0.006534509658813477
aF0.006534509658813477
aF0.006534509658813477
aF0.006534509658813477
aF0.006534509658813477
aF0.006534509658813477
aF0.006534509658813477
aF0.008346061706542968
aF0.008346061706542968
aF0.008346061706542968
aF0.008346061706542968
aF0.008346061706542968
aF0.008346061706542968
aF0.008346061706542968
aF0.008346061706542968
aF0.008346061706542968
aF0.008346061706542968
aF0.008632957935333252
aF0.008632957935333252
aF0.008632957935333252
aF0.008632957935333252
aF0.008632957935333252
aF0.008632957935333252
aF0.008632957935333252
aF0.008632957935333252
aF0.008632957935333252
aF0.008632957935333252
aF0.011586112976074219
aF0.011586112976074219
aF0.011586112976074219
aF0.011586112976074219
aF0.011586112976074219
aF0.011586112976074219
aF0.011586112976074219
aF0.011586112976074219
aF0.011586112976074219
aF0.011586112976074219
aF0.014750432968139649
aF0.014750432968139649
aF0.014750432968139649
aF0.014750432968139649
aF0.014750432968139649
aF0.014750432968139649
aF0.014750432968139649
aF0.014750432968139649
aF0.014750432968139649
aF0.014750432968139649
aF0.017327165603637697
aF0.017327165603637697
aF0.017327165603637697
aF0.017327165603637697
aF0.017327165603637697
aF0.017327165603637697
aF0.017327165603637697
aF0.017327165603637697
aF0.017327165603637697
aF0.017327165603637697
aF0.03397040367126465
aF0.03397040367126465
aF0.03397040367126465
aF0.03397040367126465
aF0.03397040367126465
aF0.03397040367126465
aF0.03397040367126465
aF0.03397040367126465
aF0.03397040367126465
aF0.03397040367126465
aF0.02756290435791016
aF0.02756290435791016
aF0.02756290435791016
aF0.02756290435791016
aF0.02756290435791016
aF0.02756290435791016
aF0.02756290435791016
aF0.02756290435791016
aF0.02756290435791016
aF0.02756290435791016
aF0.045922851562500006
aF0.045922851562500006
aF0.045922851562500006
aF0.045922851562500006
aF0.045922851562500006
aF0.045922851562500006
aF0.045922851562500006
aF0.045922851562500006
aF0.045922851562500006
aF0.045922851562500006
aF0.1151397705078125
aF0.1151397705078125
aF0.1151397705078125
aF0.1151397705078125
aF0.1151397705078125
aF0.1151397705078125
aF0.1151397705078125
aF0.1151397705078125
aF0.1151397705078125
aF0.1151397705078125
aF0.6028423309326172
aF0.6028423309326172
aF0.6028423309326172
aF0.6028423309326172
aF0.6028423309326172
aF0.6028423309326172
aF0.6028423309326172
aF0.6028423309326172
aF0.6028423309326172
aF0.6028423309326172
aF0.07895507812500001
aF0.07895507812500001
aF0.07895507812500001
aF0.07895507812500001
aF0.07895507812500001
aF0.07895507812500001
aF0.07895507812500001
aF0.07895507812500001
aF0.07895507812500001
aF0.07895507812500001
aF0.13897705078125
aF0.13897705078125
aF0.13897705078125
aF0.13897705078125
aF0.13897705078125
aF0.13897705078125
aF0.13897705078125
aF0.13897705078125
aF0.13897705078125
aF0.13897705078125
aF3.814453125
aF3.814453125
aF3.814453125
aF3.814453125
aF3.814453125
aF3.814453125
aF3.814453125
aF3.814453125
aF3.814453125
aF3.814453125
aF0.249755859375
aF0.249755859375
aF0.249755859375
aF0.249755859375
aF0.249755859375
aF0.249755859375
aF0.249755859375
aF0.249755859375
aF0.249755859375
aF0.249755859375
aF20.326520919799805
aF20.326520919799805
aF20.326520919799805
aF20.326520919799805
aF20.326520919799805
aF20.326520919799805
aF20.326520919799805
aF20.326520919799805
aF20.326520919799805
aF20.326520919799805
aF138.21104049682617
aF138.21104049682617
aF138.21104049682617
aF138.21104049682617
aF138.21104049682617
aF138.21104049682617
aF138.21104049682617
aF138.21104049682617
aF138.21104049682617
aF138.21104049682617
aF0.453857421875
aF0.453857421875
aF0.453857421875
aF0.453857421875
aF0.453857421875
aF0.453857421875
aF0.453857421875
aF0.453857421875
aF0.453857421875
aF0.453857421875
aF1830.5416107177734
aF1830.5416107177734
aF1830.5416107177734
aF1830.5416107177734
aF1830.5416107177734
aF1830.5416107177734
aF1830.5416107177734
aF1830.5416107177734
aF1830.5416107177734
aF1830.5416107177734
aF0.835205078125
aF0.835205078125
aF0.835205078125
aF0.835205078125
aF0.835205078125
aF0.835205078125
aF0.835205078125
aF0.835205078125
aF0.835205078125
aF0.835205078125
aF96564.29290771484
aF96564.29290771484
aF96564.29290771484
aF96564.29290771484
aF96564.29290771484
aF96564.29290771484
aF96564.29290771484
aF96564.29290771484
aF96564.29290771484
aF96564.29290771484
aF1.546875
aF1.546875
aF1.546875
aF1.546875
aF1.546875
aF1.546875
aF1.546875
aF1.546875
aF1.546875
aF1.546875
aF22237079.620361328
aF22237079.620361328
aF22237079.620361328
aF22237079.620361328
aF22237079.620361328
aF22237079.620361328
aF22237079.620361328
aF22237079.620361328
aF22237079.620361328
aF22237079.620361328
aF2.87890625
aF2.87890625
aF2.87890625
aF2.87890625
aF2.87890625
aF2.87890625
aF2.87890625
aF2.87890625
aF2.87890625
aF2.87890625
aF37020492553.71094
aF37020492553.71094
aF37020492553.71094
aF37020492553.71094
aF37020492553.71094
aF37020492553.71094
aF37020492553.71094
aF37020492553.71094
aF37020492553.71094
aF37020492553.71094
aF5.37109375
aF5.37109375
aF5.37109375
aF5.37109375
aF5.37109375
aF5.37109375
aF5.37109375
aF5.37109375
aF5.37109375
aF5.37109375
aF3733012008666992.0
aF3733012008666992.0
aF3733012008666992.0
aF3733012008666992.0
aF3733012008666992.0
aF3733012008666992.0
aF3733012008666992.0
aF3733012008666992.0
aF3733012008666992.0
aF3733012008666992.0
aF10.09039306640625
aF10.09039306640625
aF10.09039306640625
aF10.09039306640625
aF10.09039306640625
aF10.09039306640625
aF10.09039306640625
aF10.09039306640625
aF10.09039306640625
aF10.09039306640625
asg11
(lp25
F0.014265785217285156
aF0.014265785217285156
aF0.014265785217285156
aF0.014265785217285156
aF0.014265785217285156
aF0.014265785217285156
aF0.014265785217285156
aF0.014265785217285156
aF0.014265785217285156
aF0.014265785217285156
aF0.015158908367156982
aF0.015158908367156982
aF0.015158908367156982
aF0.015158908367156982
aF0.015158908367156982
aF0.015158908367156982
aF0.015158908367156982
aF0.015158908367156982
aF0.015158908367156982
aF0.015158908367156982
aF0.013901551961898804
aF0.013901551961898804
aF0.013901551961898804
aF0.013901551961898804
aF0.013901551961898804
aF0.013901551961898804
aF0.013901551961898804
aF0.013901551961898804
aF0.013901551961898804
aF0.013901551961898804
aF0.015054955482482911
aF0.015054955482482911
aF0.015054955482482911
aF0.015054955482482911
aF0.015054955482482911
aF0.015054955482482911
aF0.015054955482482911
aF0.015054955482482911
aF0.015054955482482911
aF0.015054955482482911
aF0.018903340101242064
aF0.018903340101242064
aF0.018903340101242064
aF0.018903340101242064
aF0.018903340101242064
aF0.018903340101242064
aF0.018903340101242064
aF0.018903340101242064
aF0.018903340101242064
aF0.018903340101242064
aF0.02013556957244873
aF0.02013556957244873
aF0.02013556957244873
aF0.02013556957244873
aF0.02013556957244873
aF0.02013556957244873
aF0.02013556957244873
aF0.02013556957244873
aF0.02013556957244873
aF0.02013556957244873
aF0.02609023332595825
aF0.02609023332595825
aF0.02609023332595825
aF0.02609023332595825
aF0.02609023332595825
aF0.02609023332595825
aF0.02609023332595825
aF0.02609023332595825
aF0.02609023332595825
aF0.02609023332595825
aF0.03495712280273438
aF0.03495712280273438
aF0.03495712280273438
aF0.03495712280273438
aF0.03495712280273438
aF0.03495712280273438
aF0.03495712280273438
aF0.03495712280273438
aF0.03495712280273438
aF0.03495712280273438
aF0.0390043318271637
aF0.0390043318271637
aF0.0390043318271637
aF0.0390043318271637
aF0.0390043318271637
aF0.0390043318271637
aF0.0390043318271637
aF0.0390043318271637
aF0.0390043318271637
aF0.0390043318271637
aF0.08280583620071412
aF0.08280583620071412
aF0.08280583620071412
aF0.08280583620071412
aF0.08280583620071412
aF0.08280583620071412
aF0.08280583620071412
aF0.08280583620071412
aF0.08280583620071412
aF0.08280583620071412
aF0.06188512444496155
aF0.06188512444496155
aF0.06188512444496155
aF0.06188512444496155
aF0.06188512444496155
aF0.06188512444496155
aF0.06188512444496155
aF0.06188512444496155
aF0.06188512444496155
aF0.06188512444496155
aF0.10300757884979249
aF0.10300757884979249
aF0.10300757884979249
aF0.10300757884979249
aF0.10300757884979249
aF0.10300757884979249
aF0.10300757884979249
aF0.10300757884979249
aF0.10300757884979249
aF0.10300757884979249
aF0.2925104141235352
aF0.2925104141235352
aF0.2925104141235352
aF0.2925104141235352
aF0.2925104141235352
aF0.2925104141235352
aF0.2925104141235352
aF0.2925104141235352
aF0.2925104141235352
aF0.2925104141235352
aF1.2636158466339111
aF1.2636158466339111
aF1.2636158466339111
aF1.2636158466339111
aF1.2636158466339111
aF1.2636158466339111
aF1.2636158466339111
aF1.2636158466339111
aF1.2636158466339111
aF1.2636158466339111
aF0.1771007537841797
aF0.1771007537841797
aF0.1771007537841797
aF0.1771007537841797
aF0.1771007537841797
aF0.1771007537841797
aF0.1771007537841797
aF0.1771007537841797
aF0.1771007537841797
aF0.1771007537841797
aF0.3117334842681885
aF0.3117334842681885
aF0.3117334842681885
aF0.3117334842681885
aF0.3117334842681885
aF0.3117334842681885
aF0.3117334842681885
aF0.3117334842681885
aF0.3117334842681885
aF0.3117334842681885
aF5.594168663024902
aF5.594168663024902
aF5.594168663024902
aF5.594168663024902
aF5.594168663024902
aF5.594168663024902
aF5.594168663024902
aF5.594168663024902
aF5.594168663024902
aF5.594168663024902
aF0.558768630027771
aF0.558768630027771
aF0.558768630027771
aF0.558768630027771
aF0.558768630027771
aF0.558768630027771
aF0.558768630027771
aF0.558768630027771
aF0.558768630027771
aF0.558768630027771
aF29.412641525268555
aF29.412641525268555
aF29.412641525268555
aF29.412641525268555
aF29.412641525268555
aF29.412641525268555
aF29.412641525268555
aF29.412641525268555
aF29.412641525268555
aF29.412641525268555
aF217.5531768798828
aF217.5531768798828
aF217.5531768798828
aF217.5531768798828
aF217.5531768798828
aF217.5531768798828
aF217.5531768798828
aF217.5531768798828
aF217.5531768798828
aF217.5531768798828
aF1.0180281400680542
aF1.0180281400680542
aF1.0180281400680542
aF1.0180281400680542
aF1.0180281400680542
aF1.0180281400680542
aF1.0180281400680542
aF1.0180281400680542
aF1.0180281400680542
aF1.0180281400680542
aF2963.2369995117188
aF2963.2369995117188
aF2963.2369995117188
aF2963.2369995117188
aF2963.2369995117188
aF2963.2369995117188
aF2963.2369995117188
aF2963.2369995117188
aF2963.2369995117188
aF2963.2369995117188
aF1.868570327758789
aF1.868570327758789
aF1.868570327758789
aF1.868570327758789
aF1.868570327758789
aF1.868570327758789
aF1.868570327758789
aF1.868570327758789
aF1.868570327758789
aF1.868570327758789
aF156280.3077697754
aF156280.3077697754
aF156280.3077697754
aF156280.3077697754
aF156280.3077697754
aF156280.3077697754
aF156280.3077697754
aF156280.3077697754
aF156280.3077697754
aF156280.3077697754
aF3.4607605934143066
aF3.4607605934143066
aF3.4607605934143066
aF3.4607605934143066
aF3.4607605934143066
aF3.4607605934143066
aF3.4607605934143066
aF3.4607605934143066
aF3.4607605934143066
aF3.4607605934143066
aF35883583.068847656
aF35883583.068847656
aF35883583.068847656
aF35883583.068847656
aF35883583.068847656
aF35883583.068847656
aF35883583.068847656
aF35883583.068847656
aF35883583.068847656
aF35883583.068847656
aF6.440859794616699
aF6.440859794616699
aF6.440859794616699
aF6.440859794616699
aF6.440859794616699
aF6.440859794616699
aF6.440859794616699
aF6.440859794616699
aF6.440859794616699
aF6.440859794616699
aF59914215087.890625
aF59914215087.890625
aF59914215087.890625
aF59914215087.890625
aF59914215087.890625
aF59914215087.890625
aF59914215087.890625
aF59914215087.890625
aF59914215087.890625
aF59914215087.890625
aF12.016529083251953
aF12.016529083251953
aF12.016529083251953
aF12.016529083251953
aF12.016529083251953
aF12.016529083251953
aF12.016529083251953
aF12.016529083251953
aF12.016529083251953
aF12.016529083251953
aF6023895645141602.0
aF6023895645141602.0
aF6023895645141602.0
aF6023895645141602.0
aF6023895645141602.0
aF6023895645141602.0
aF6023895645141602.0
aF6023895645141602.0
aF6023895645141602.0
aF6023895645141602.0
aF22.553239822387695
aF22.553239822387695
aF22.553239822387695
aF22.553239822387695
aF22.553239822387695
aF22.553239822387695
aF22.553239822387695
aF22.553239822387695
aF22.553239822387695
aF22.553239822387695
asg13
(lp26
F0.0091796875
aF0.0091796875
aF0.0091796875
aF0.0091796875
aF0.0091796875
aF0.0091796875
aF0.0091796875
aF0.0091796875
aF0.0091796875
aF0.0091796875
aF0.009804687500000001
aF0.009804687500000001
aF0.009804687500000001
aF0.009804687500000001
aF0.009804687500000001
aF0.009804687500000001
aF0.009804687500000001
aF0.009804687500000001
aF0.009804687500000001
aF0.009804687500000001
aF0.0089453125
aF0.0089453125
aF0.0089453125
aF0.0089453125
aF0.0089453125
aF0.0089453125
aF0.0089453125
aF0.0089453125
aF0.0089453125
aF0.0089453125
aF0.0096875
aF0.0096875
aF0.0096875
aF0.0096875
aF0.0096875
aF0.0096875
aF0.0096875
aF0.0096875
aF0.0096875
aF0.0096875
aF0.0122265625
aF0.0122265625
aF0.0122265625
aF0.0122265625
aF0.0122265625
aF0.0122265625
aF0.0122265625
aF0.0122265625
aF0.0122265625
aF0.0122265625
aF0.012890625000000001
aF0.012890625000000001
aF0.012890625000000001
aF0.012890625000000001
aF0.012890625000000001
aF0.012890625000000001
aF0.012890625000000001
aF0.012890625000000001
aF0.012890625000000001
aF0.012890625000000001
aF0.016875
aF0.016875
aF0.016875
aF0.016875
aF0.016875
aF0.016875
aF0.016875
aF0.016875
aF0.016875
aF0.016875
aF0.022265625
aF0.022265625
aF0.022265625
aF0.022265625
aF0.022265625
aF0.022265625
aF0.022265625
aF0.022265625
aF0.022265625
aF0.022265625
aF0.025292968750000002
aF0.025292968750000002
aF0.025292968750000002
aF0.025292968750000002
aF0.025292968750000002
aF0.025292968750000002
aF0.025292968750000002
aF0.025292968750000002
aF0.025292968750000002
aF0.025292968750000002
aF0.05234375
aF0.05234375
aF0.05234375
aF0.05234375
aF0.05234375
aF0.05234375
aF0.05234375
aF0.05234375
aF0.05234375
aF0.05234375
aF0.040234375
aF0.040234375
aF0.040234375
aF0.040234375
aF0.040234375
aF0.040234375
aF0.040234375
aF0.040234375
aF0.040234375
aF0.040234375
aF0.066796875
aF0.066796875
aF0.066796875
aF0.066796875
aF0.066796875
aF0.066796875
aF0.066796875
aF0.066796875
aF0.066796875
aF0.066796875
aF0.18125000000000002
aF0.18125000000000002
aF0.18125000000000002
aF0.18125000000000002
aF0.18125000000000002
aF0.18125000000000002
aF0.18125000000000002
aF0.18125000000000002
aF0.18125000000000002
aF0.18125000000000002
aF0.921875
aF0.921875
aF0.921875
aF0.921875
aF0.921875
aF0.921875
aF0.921875
aF0.921875
aF0.921875
aF0.921875
aF0.11484375000000001
aF0.11484375000000001
aF0.11484375000000001
aF0.11484375000000001
aF0.11484375000000001
aF0.11484375000000001
aF0.11484375000000001
aF0.11484375000000001
aF0.11484375000000001
aF0.11484375000000001
aF0.2021484375
aF0.2021484375
aF0.2021484375
aF0.2021484375
aF0.2021484375
aF0.2021484375
aF0.2021484375
aF0.2021484375
aF0.2021484375
aF0.2021484375
aF4.5
aF4.5
aF4.5
aF4.5
aF4.5
aF4.5
aF4.5
aF4.5
aF4.5
aF4.5
aF0.36328125
aF0.36328125
aF0.36328125
aF0.36328125
aF0.36328125
aF0.36328125
aF0.36328125
aF0.36328125
aF0.36328125
aF0.36328125
aF23.8125
aF23.8125
aF23.8125
aF23.8125
aF23.8125
aF23.8125
aF23.8125
aF23.8125
aF23.8125
aF23.8125
aF170.625
aF170.625
aF170.625
aF170.625
aF170.625
aF170.625
aF170.625
aF170.625
aF170.625
aF170.625
aF0.66015625
aF0.66015625
aF0.66015625
aF0.66015625
aF0.66015625
aF0.66015625
aF0.66015625
aF0.66015625
aF0.66015625
aF0.66015625
aF2281.25
aF2281.25
aF2281.25
aF2281.25
aF2281.25
aF2281.25
aF2281.25
aF2281.25
aF2281.25
aF2281.25
aF1.21484375
aF1.21484375
aF1.21484375
aF1.21484375
aF1.21484375
aF1.21484375
aF1.21484375
aF1.21484375
aF1.21484375
aF1.21484375
aF120312.5
aF120312.5
aF120312.5
aF120312.5
aF120312.5
aF120312.5
aF120312.5
aF120312.5
aF120312.5
aF120312.5
aF2.25
aF2.25
aF2.25
aF2.25
aF2.25
aF2.25
aF2.25
aF2.25
aF2.25
aF2.25
aF27625000.0
aF27625000.0
aF27625000.0
aF27625000.0
aF27625000.0
aF27625000.0
aF27625000.0
aF27625000.0
aF27625000.0
aF27625000.0
aF4.1875
aF4.1875
aF4.1875
aF4.1875
aF4.1875
aF4.1875
aF4.1875
aF4.1875
aF4.1875
aF4.1875
aF46125000000.0
aF46125000000.0
aF46125000000.0
aF46125000000.0
aF46125000000.0
aF46125000000.0
aF46125000000.0
aF46125000000.0
aF46125000000.0
aF46125000000.0
aF7.8125
aF7.8125
aF7.8125
aF7.8125
aF7.8125
aF7.8125
aF7.8125
aF7.8125
aF7.8125
aF7.8125
aF4637500000000000.0
aF4637500000000000.0
aF4637500000000000.0
aF4637500000000000.0
aF4637500000000000.0
aF4637500000000000.0
aF4637500000000000.0
aF4637500000000000.0
aF4637500000000000.0
aF4637500000000000.0
aF14.625
aF14.625
aF14.625
aF14.625
aF14.625
aF14.625
aF14.625
aF14.625
aF14.625
aF14.625
asg15
(lp27
F0.0044464111328125005
aF0.0044464111328125005
aF0.0044464111328125005
aF0.0044464111328125005
aF0.0044464111328125005
aF0.0044464111328125005
aF0.0044464111328125005
aF0.0044464111328125005
aF0.0044464111328125005
aF0.0044464111328125005
aF0.0047491455078125
aF0.0047491455078125
aF0.0047491455078125
aF0.0047491455078125
aF0.0047491455078125
aF0.0047491455078125
aF0.0047491455078125
aF0.0047491455078125
aF0.0047491455078125
aF0.0047491455078125
aF0.004297943115234375
aF0.004297943115234375
aF0.004297943115234375
aF0.004297943115234375
aF0.004297943115234375
aF0.004297943115234375
aF0.004297943115234375
aF0.004297943115234375
aF0.004297943115234375
aF0.004297943115234375
aF0.004578857421875
aF0.004578857421875
aF0.004578857421875
aF0.004578857421875
aF0.004578857421875
aF0.004578857421875
aF0.004578857421875
aF0.004578857421875
aF0.004578857421875
aF0.004578857421875
aF0.00601776123046875
aF0.00601776123046875
aF0.00601776123046875
aF0.00601776123046875
aF0.00601776123046875
aF0.00601776123046875
aF0.00601776123046875
aF0.00601776123046875
aF0.00601776123046875
aF0.00601776123046875
aF0.00599212646484375
aF0.00599212646484375
aF0.00599212646484375
aF0.00599212646484375
aF0.00599212646484375
aF0.00599212646484375
aF0.00599212646484375
aF0.00599212646484375
aF0.00599212646484375
aF0.00599212646484375
aF0.0083056640625
aF0.0083056640625
aF0.0083056640625
aF0.0083056640625
aF0.0083056640625
aF0.0083056640625
aF0.0083056640625
aF0.0083056640625
aF0.0083056640625
aF0.0083056640625
aF0.010089111328125
aF0.010089111328125
aF0.010089111328125
aF0.010089111328125
aF0.010089111328125
aF0.010089111328125
aF0.010089111328125
aF0.010089111328125
aF0.010089111328125
aF0.010089111328125
aF0.012547683715820313
aF0.012547683715820313
aF0.012547683715820313
aF0.012547683715820313
aF0.012547683715820313
aF0.012547683715820313
aF0.012547683715820313
aF0.012547683715820313
aF0.012547683715820313
aF0.012547683715820313
aF0.023309326171875002
aF0.023309326171875002
aF0.023309326171875002
aF0.023309326171875002
aF0.023309326171875002
aF0.023309326171875002
aF0.023309326171875002
aF0.023309326171875002
aF0.023309326171875002
aF0.023309326171875002
aF0.019960021972656252
aF0.019960021972656252
aF0.019960021972656252
aF0.019960021972656252
aF0.019960021972656252
aF0.019960021972656252
aF0.019960021972656252
aF0.019960021972656252
aF0.019960021972656252
aF0.019960021972656252
aF0.0333984375
aF0.0333984375
aF0.0333984375
aF0.0333984375
aF0.0333984375
aF0.0333984375
aF0.0333984375
aF0.0333984375
aF0.0333984375
aF0.0333984375
aF0.079296875
aF0.079296875
aF0.079296875
aF0.079296875
aF0.079296875
aF0.079296875
aF0.079296875
aF0.079296875
aF0.079296875
aF0.079296875
aF0.417724609375
aF0.417724609375
aF0.417724609375
aF0.417724609375
aF0.417724609375
aF0.417724609375
aF0.417724609375
aF0.417724609375
aF0.417724609375
aF0.417724609375
aF0.057421875000000004
aF0.057421875000000004
aF0.057421875000000004
aF0.057421875000000004
aF0.057421875000000004
aF0.057421875000000004
aF0.057421875000000004
aF0.057421875000000004
aF0.057421875000000004
aF0.057421875000000004
aF0.10107421875
aF0.10107421875
aF0.10107421875
aF0.10107421875
aF0.10107421875
aF0.10107421875
aF0.10107421875
aF0.10107421875
aF0.10107421875
aF0.10107421875
aF3.375
aF3.375
aF3.375
aF3.375
aF3.375
aF3.375
aF3.375
aF3.375
aF3.375
aF3.375
aF0.181640625
aF0.181640625
aF0.181640625
aF0.181640625
aF0.181640625
aF0.181640625
aF0.181640625
aF0.181640625
aF0.181640625
aF0.181640625
aF18.3709716796875
aF18.3709716796875
aF18.3709716796875
aF18.3709716796875
aF18.3709716796875
aF18.3709716796875
aF18.3709716796875
aF18.3709716796875
aF18.3709716796875
aF18.3709716796875
aF115.30517578125
aF115.30517578125
aF115.30517578125
aF115.30517578125
aF115.30517578125
aF115.30517578125
aF115.30517578125
aF115.30517578125
aF115.30517578125
aF115.30517578125
aF0.330078125
aF0.330078125
aF0.330078125
aF0.330078125
aF0.330078125
aF0.330078125
aF0.330078125
aF0.330078125
aF0.330078125
aF0.330078125
aF1541.6259765625
aF1541.6259765625
aF1541.6259765625
aF1541.6259765625
aF1541.6259765625
aF1541.6259765625
aF1541.6259765625
aF1541.6259765625
aF1541.6259765625
aF1541.6259765625
aF0.607421875
aF0.607421875
aF0.607421875
aF0.607421875
aF0.607421875
aF0.607421875
aF0.607421875
aF0.607421875
aF0.607421875
aF0.607421875
aF80834.9609375
aF80834.9609375
aF80834.9609375
aF80834.9609375
aF80834.9609375
aF80834.9609375
aF80834.9609375
aF80834.9609375
aF80834.9609375
aF80834.9609375
aF1.125
aF1.125
aF1.125
aF1.125
aF1.125
aF1.125
aF1.125
aF1.125
aF1.125
aF1.125
aF18668457.03125
aF18668457.03125
aF18668457.03125
aF18668457.03125
aF18668457.03125
aF18668457.03125
aF18668457.03125
aF18668457.03125
aF18668457.03125
aF18668457.03125
aF2.09375
aF2.09375
aF2.09375
aF2.09375
aF2.09375
aF2.09375
aF2.09375
aF2.09375
aF2.09375
aF2.09375
aF30990234375.0
aF30990234375.0
aF30990234375.0
aF30990234375.0
aF30990234375.0
aF30990234375.0
aF30990234375.0
aF30990234375.0
aF30990234375.0
aF30990234375.0
aF3.90625
aF3.90625
aF3.90625
aF3.90625
aF3.90625
aF3.90625
aF3.90625
aF3.90625
aF3.90625
aF3.90625
aF3133935546875000.0
aF3133935546875000.0
aF3133935546875000.0
aF3133935546875000.0
aF3133935546875000.0
aF3133935546875000.0
aF3133935546875000.0
aF3133935546875000.0
aF3133935546875000.0
aF3133935546875000.0
aF7.36962890625
aF7.36962890625
aF7.36962890625
aF7.36962890625
aF7.36962890625
aF7.36962890625
aF7.36962890625
aF7.36962890625
aF7.36962890625
aF7.36962890625
asg17
(lp28
F0.02204958438873291
aF0.02204958438873291
aF0.02204958438873291
aF0.02204958438873291
aF0.02204958438873291
aF0.02204958438873291
aF0.02204958438873291
aF0.02204958438873291
aF0.02204958438873291
aF0.02204958438873291
aF0.02351724624633789
aF0.02351724624633789
aF0.02351724624633789
aF0.02351724624633789
aF0.02351724624633789
aF0.02351724624633789
aF0.02351724624633789
aF0.02351724624633789
aF0.02351724624633789
aF0.02351724624633789
aF0.021486616134643557
aF0.021486616134643557
aF0.021486616134643557
aF0.021486616134643557
aF0.021486616134643557
aF0.021486616134643557
aF0.021486616134643557
aF0.021486616134643557
aF0.021486616134643557
aF0.021486616134643557
aF0.02326934814453125
aF0.02326934814453125
aF0.02326934814453125
aF0.02326934814453125
aF0.02326934814453125
aF0.02326934814453125
aF0.02326934814453125
aF0.02326934814453125
aF0.02326934814453125
aF0.02326934814453125
aF0.02932628631591797
aF0.02932628631591797
aF0.02932628631591797
aF0.02932628631591797
aF0.02932628631591797
aF0.02932628631591797
aF0.02932628631591797
aF0.02932628631591797
aF0.02932628631591797
aF0.02932628631591797
aF0.03130526065826416
aF0.03130526065826416
aF0.03130526065826416
aF0.03130526065826416
aF0.03130526065826416
aF0.03130526065826416
aF0.03130526065826416
aF0.03130526065826416
aF0.03130526065826416
aF0.03130526065826416
aF0.040475897789001465
aF0.040475897789001465
aF0.040475897789001465
aF0.040475897789001465
aF0.040475897789001465
aF0.040475897789001465
aF0.040475897789001465
aF0.040475897789001465
aF0.040475897789001465
aF0.040475897789001465
aF0.05465793013572693
aF0.05465793013572693
aF0.05465793013572693
aF0.05465793013572693
aF0.05465793013572693
aF0.05465793013572693
aF0.05465793013572693
aF0.05465793013572693
aF0.05465793013572693
aF0.05465793013572693
aF0.060031366348266606
aF0.060031366348266606
aF0.060031366348266606
aF0.060031366348266606
aF0.060031366348266606
aF0.060031366348266606
aF0.060031366348266606
aF0.060031366348266606
aF0.060031366348266606
aF0.060031366348266606
aF0.12993665933609008
aF0.12993665933609008
aF0.12993665933609008
aF0.12993665933609008
aF0.12993665933609008
aF0.12993665933609008
aF0.12993665933609008
aF0.12993665933609008
aF0.12993665933609008
aF0.12993665933609008
aF0.09542249441146851
aF0.09542249441146851
aF0.09542249441146851
aF0.09542249441146851
aF0.09542249441146851
aF0.09542249441146851
aF0.09542249441146851
aF0.09542249441146851
aF0.09542249441146851
aF0.09542249441146851
aF0.15853843688964844
aF0.15853843688964844
aF0.15853843688964844
aF0.15853843688964844
aF0.15853843688964844
aF0.15853843688964844
aF0.15853843688964844
aF0.15853843688964844
aF0.15853843688964844
aF0.15853843688964844
aF0.44810113906860355
aF0.44810113906860355
aF0.44810113906860355
aF0.44810113906860355
aF0.44810113906860355
aF0.44810113906860355
aF0.44810113906860355
aF0.44810113906860355
aF0.44810113906860355
aF0.44810113906860355
aF1.6786054372787476
aF1.6786054372787476
aF1.6786054372787476
aF1.6786054372787476
aF1.6786054372787476
aF1.6786054372787476
aF1.6786054372787476
aF1.6786054372787476
aF1.6786054372787476
aF1.6786054372787476
aF0.27257485389709474
aF0.27257485389709474
aF0.27257485389709474
aF0.27257485389709474
aF0.27257485389709474
aF0.27257485389709474
aF0.27257485389709474
aF0.27257485389709474
aF0.27257485389709474
aF0.27257485389709474
aF0.4797873795032501
aF0.4797873795032501
aF0.4797873795032501
aF0.4797873795032501
aF0.4797873795032501
aF0.4797873795032501
aF0.4797873795032501
aF0.4797873795032501
aF0.4797873795032501
aF0.4797873795032501
aF7.205783367156982
aF7.205783367156982
aF7.205783367156982
aF7.205783367156982
aF7.205783367156982
aF7.205783367156982
aF7.205783367156982
aF7.205783367156982
aF7.205783367156982
aF7.205783367156982
aF0.8615817427635193
aF0.8615817427635193
aF0.8615817427635193
aF0.8615817427635193
aF0.8615817427635193
aF0.8615817427635193
aF0.8615817427635193
aF0.8615817427635193
aF0.8615817427635193
aF0.8615817427635193
aF37.642669677734375
aF37.642669677734375
aF37.642669677734375
aF37.642669677734375
aF37.642669677734375
aF37.642669677734375
aF37.642669677734375
aF37.642669677734375
aF37.642669677734375
aF37.642669677734375
aF282.283992767334
aF282.283992767334
aF282.283992767334
aF282.283992767334
aF282.283992767334
aF282.283992767334
aF282.283992767334
aF282.283992767334
aF282.283992767334
aF282.283992767334
aF1.5668418407440186
aF1.5668418407440186
aF1.5668418407440186
aF1.5668418407440186
aF1.5668418407440186
aF1.5668418407440186
aF1.5668418407440186
aF1.5668418407440186
aF1.5668418407440186
aF1.5668418407440186
aF3910.097885131836
aF3910.097885131836
aF3910.097885131836
aF3910.097885131836
aF3910.097885131836
aF3910.097885131836
aF3910.097885131836
aF3910.097885131836
aF3910.097885131836
aF3910.097885131836
aF2.8812034130096436
aF2.8812034130096436
aF2.8812034130096436
aF2.8812034130096436
aF2.8812034130096436
aF2.8812034130096436
aF2.8812034130096436
aF2.8812034130096436
aF2.8812034130096436
aF2.8812034130096436
aF206217.47970581055
aF206217.47970581055
aF206217.47970581055
aF206217.47970581055
aF206217.47970581055
aF206217.47970581055
aF206217.47970581055
aF206217.47970581055
aF206217.47970581055
aF206217.47970581055
aF5.336248397827148
aF5.336248397827148
aF5.336248397827148
aF5.336248397827148
aF5.336248397827148
aF5.336248397827148
aF5.336248397827148
aF5.336248397827148
aF5.336248397827148
aF5.336248397827148
aF47349678.03955078
aF47349678.03955078
aF47349678.03955078
aF47349678.03955078
aF47349678.03955078
aF47349678.03955078
aF47349678.03955078
aF47349678.03955078
aF47349678.03955078
aF47349678.03955078
aF9.931350708007812
aF9.931350708007812
aF9.931350708007812
aF9.931350708007812
aF9.931350708007812
aF9.931350708007812
aF9.931350708007812
aF9.931350708007812
aF9.931350708007812
aF9.931350708007812
aF79058959960.9375
aF79058959960.9375
aF79058959960.9375
aF79058959960.9375
aF79058959960.9375
aF79058959960.9375
aF79058959960.9375
aF79058959960.9375
aF79058959960.9375
aF79058959960.9375
aF18.52863883972168
aF18.52863883972168
aF18.52863883972168
aF18.52863883972168
aF18.52863883972168
aF18.52863883972168
aF18.52863883972168
aF18.52863883972168
aF18.52863883972168
aF18.52863883972168
aF7948747253417969.0
aF7948747253417969.0
aF7948747253417969.0
aF7948747253417969.0
aF7948747253417969.0
aF7948747253417969.0
aF7948747253417969.0
aF7948747253417969.0
aF7948747253417969.0
aF7948747253417969.0
aF34.71157455444336
aF34.71157455444336
aF34.71157455444336
aF34.71157455444336
aF34.71157455444336
aF34.71157455444336
aF34.71157455444336
aF34.71157455444336
aF34.71157455444336
aF34.71157455444336
assS'comb'
p29
(dp30
g3
(lp31
I100
aI50
aI125
aI75
aI175
aI20
aI10
aI150
aI25
aI15
aI150
aI10
aI75
aI25
aI20
aI125
aI50
aI15
aI100
aI175
aI125
aI25
aI15
aI50
aI150
aI10
aI20
aI100
aI175
aI75
aI20
aI25
aI50
aI125
aI15
aI10
aI100
aI150
aI75
aI175
aI125
aI150
aI175
aI20
aI10
aI50
aI25
aI15
aI75
aI100
aI10
aI175
aI15
aI125
aI75
aI25
aI20
aI150
aI100
aI50
aI25
aI50
aI175
aI75
aI10
aI125
aI150
aI15
aI100
aI20
aI125
aI20
aI15
aI175
aI75
aI10
aI25
aI150
aI100
aI50
aI150
aI175
aI100
aI10
aI50
aI20
aI75
aI25
aI125
aI15
aI15
aI10
aI100
aI20
aI50
aI175
aI25
aI150
aI125
aI75
aI20
aI125
aI10
aI25
aI175
aI100
aI150
aI50
aI15
aI75
aI150
aI50
aI10
aI25
aI75
aI100
aI125
aI20
aI175
aI15
aI75
aI100
aI20
aI10
aI15
aI25
aI125
aI50
aI150
aI175
aI175
aI150
aI100
aI10
aI25
aI20
aI15
aI50
aI125
aI75
aI10
aI50
aI25
aI20
aI125
aI75
aI100
aI150
aI175
aI15
aI10
aI15
aI150
aI125
aI50
aI175
aI20
aI75
aI100
aI25
aI15
aI125
aI25
aI100
aI175
aI150
aI10
aI20
aI50
aI75
aI20
aI100
aI175
aI15
aI150
aI50
aI125
aI10
aI75
aI25
aI10
aI15
aI100
aI125
aI175
aI75
aI20
aI50
aI25
aI150
aI50
aI100
aI15
aI25
aI10
aI175
aI125
aI75
aI20
aI150
aI125
aI75
aI175
aI150
aI10
aI25
aI15
aI100
aI50
aI20
aI175
aI125
aI20
aI150
aI10
aI15
aI100
aI25
aI50
aI75
aI125
aI20
aI25
aI50
aI75
aI100
aI150
aI175
aI15
aI10
aI10
aI100
aI20
aI75
aI50
aI150
aI175
aI15
aI125
aI25
aI15
aI150
aI75
aI175
aI125
aI100
aI50
aI25
aI10
aI20
aI75
aI50
aI100
aI125
aI15
aI20
aI25
aI150
aI10
aI175
aI100
aI25
aI150
aI175
aI75
aI50
aI10
aI20
aI15
aI125
aI20
aI25
aI75
aI50
aI15
aI150
aI175
aI100
aI10
aI125
aI15
aI150
aI175
aI125
aI75
aI50
aI20
aI10
aI100
aI25
aI20
aI50
aI75
aI15
aI10
aI100
aI150
aI175
aI25
aI125
aI20
aI15
aI100
aI50
aI75
aI175
aI150
aI10
aI125
aI25
asg5
(lp32
I1000
aI1000
aI1000
aI1000
aI1000
aI1000
aI1000
aI1000
aI1000
aI1000
aI1172
aI1172
aI1172
aI1172
aI1172
aI1172
aI1172
aI1172
aI1172
aI1172
aI853
aI853
aI853
aI853
aI853
aI853
aI853
aI853
aI853
aI853
aI621
aI621
aI621
aI621
aI621
aI621
aI621
aI621
aI621
aI621
aI1610
aI1610
aI1610
aI1610
aI1610
aI1610
aI1610
aI1610
aI1610
aI1610
aI452
aI452
aI452
aI452
aI452
aI452
aI452
aI452
aI452
aI452
aI2212
aI2212
aI2212
aI2212
aI2212
aI2212
aI2212
aI2212
aI2212
aI2212
aI329
aI329
aI329
aI329
aI329
aI329
aI329
aI329
aI329
aI329
aI3039
aI3039
aI3039
aI3039
aI3039
aI3039
aI3039
aI3039
aI3039
aI3039
aI240
aI240
aI240
aI240
aI240
aI240
aI240
aI240
aI240
aI240
aI4175
aI4175
aI4175
aI4175
aI4175
aI4175
aI4175
aI4175
aI4175
aI4175
aI5736
aI5736
aI5736
aI5736
aI5736
aI5736
aI5736
aI5736
aI5736
aI5736
aI174
aI174
aI174
aI174
aI174
aI174
aI174
aI174
aI174
aI174
aI127
aI127
aI127
aI127
aI127
aI127
aI127
aI127
aI127
aI127
aI7880
aI7880
aI7880
aI7880
aI7880
aI7880
aI7880
aI7880
aI7880
aI7880
aI10826
aI10826
aI10826
aI10826
aI10826
aI10826
aI10826
aI10826
aI10826
aI10826
aI92
aI92
aI92
aI92
aI92
aI92
aI92
aI92
aI92
aI92
aI14874
aI14874
aI14874
aI14874
aI14874
aI14874
aI14874
aI14874
aI14874
aI14874
aI67
aI67
aI67
aI67
aI67
aI67
aI67
aI67
aI67
aI67
aI49
aI49
aI49
aI49
aI49
aI49
aI49
aI49
aI49
aI49
aI20434
aI20434
aI20434
aI20434
aI20434
aI20434
aI20434
aI20434
aI20434
aI20434
aI36
aI36
aI36
aI36
aI36
aI36
aI36
aI36
aI36
aI36
aI28072
aI28072
aI28072
aI28072
aI28072
aI28072
aI28072
aI28072
aI28072
aI28072
aI26
aI26
aI26
aI26
aI26
aI26
aI26
aI26
aI26
aI26
aI38566
aI38566
aI38566
aI38566
aI38566
aI38566
aI38566
aI38566
aI38566
aI38566
aI19
aI19
aI19
aI19
aI19
aI19
aI19
aI19
aI19
aI19
aI52983
aI52983
aI52983
aI52983
aI52983
aI52983
aI52983
aI52983
aI52983
aI52983
aI14
aI14
aI14
aI14
aI14
aI14
aI14
aI14
aI14
aI14
aI72790
aI72790
aI72790
aI72790
aI72790
aI72790
aI72790
aI72790
aI72790
aI72790
aI10
aI10
aI10
aI10
aI10
aI10
aI10
aI10
aI10
aI10
aI100000
aI100000
aI100000
aI100000
aI100000
aI100000
aI100000
aI100000
aI100000
aI100000
asg7
(lp33
F0.007459960307545373
aF0.006809474010047913
aF0.008245941900140242
aF0.005978592077231992
aF0.0089976235977405
aF0.010482063075383683
aF0.008619846126244597
aF0.008785013454381839
aF0.010972699330792644
aF0.010192642692260265
aF0.00939867550831179
aF0.00920031011772014
aF0.006444306812222339
aF0.011699218997336967
aF0.011191559889409121
aF0.008864232485883257
aF0.007300073572997852
aF0.010883606707297827
aF0.008032696413397173
aF0.009588601259203864
aF0.007948661536804399
aF0.010674507752833825
aF0.009918432540249461
aF0.006584518816677303
aF0.008493927441348192
aF0.008399664530242622
aF0.010160130103893765
aF0.0071544628200559506
aF0.008740258080657927
aF0.005734159116954212
aF0.010888631260150373
aF0.011473262879361403
aF0.006919249478780113
aF0.00829091665313049
aF0.010681365828943213
aF0.009083784406286734
aF0.0073631561916471045
aF0.009031720762785148
aF0.005920383259551635
aF0.009338782098716296
aF0.011197017406861092
aF0.01177377249587767
aF0.012013670112905066
aF0.013992809214479957
aF0.01148831451804027
aF0.009156846309306483
aF0.014571645505640931
aF0.013601336589008932
aF0.008140861469225855
aF0.01017603839699885
aF0.012116781372298185
aF0.012244826938151565
aF0.01415771627594353
aF0.01031116965264941
aF0.0072577268087516845
aF0.015167141966026572
aF0.014336656533520538
aF0.011611597711728136
aF0.008992673584546643
aF0.008789342740800675
aF0.020166760482941925
aF0.01271804504952197
aF0.016663445493114427
aF0.011376076837419317
aF0.015914790766273723
aF0.015574946340437702
aF0.01636457117821395
aF0.01878392529030197
aF0.01420415205384578
aF0.019440100387197005
aF0.015570916732338442
aF0.024426229507147006
aF0.024277847788505127
aF0.020342580291371076
aF0.01081809948081104
aF0.020926686908392823
aF0.02577117775727831
aF0.01859306485220628
aF0.013001011972776717
aF0.013901213373063014
aF0.02456923430328196
aF0.02494511695316086
aF0.02132528201281658
aF0.023790839324215957
aF0.019112089481641493
aF0.02906768895971203
aF0.017080596272424847
aF0.0301276838462734
aF0.0234803655688278
aF0.028175756138771664
aF0.05623065401874568
aF0.04917170348738549
aF0.022345066601944515
aF0.056064885362217744
aF0.02748605481838744
aF0.043513426606929834
aF0.058600616483276795
aF0.03656257662403617
aF0.027805445815207726
aF0.019202038975553764
aF0.046332987407461834
aF0.037453474485755166
aF0.037872807104390414
aF0.047697675166249565
aF0.03966372249038825
aF0.033940265159243616
aF0.03907685488092399
aF0.03031985679696212
aF0.04476657719859591
aF0.027260158381042607
aF0.06503935991491135
aF0.050567112694579835
aF0.06288114732673043
aF0.07892724810516806
aF0.045368187631564784
aF0.05661652350497473
aF0.06225559325778457
aF0.07708500944932355
aF0.06602197018346546
aF0.07432490719838707
aF0.040572624226559516
aF0.0463308406371657
aF0.191288223183438
aF0.1705883892395796
aF0.19071851813959853
aF0.18744714858804315
aF0.05893233442838646
aF0.06704656451842415
aF0.0860564439230444
aF0.11789656807857785
aF0.3551911163234574
aF0.22388453505660047
aF0.11592256623789034
aF0.8317103446197598
aF0.6396394684910306
aF0.8364137415203817
aF0.8058634013419544
aF0.19439696598274173
aF0.14515646789308345
aF0.10930358345216398
aF0.10827191219780237
aF0.0867245762105876
aF0.1353976386029776
aF0.13260150654385142
aF0.1072221333379368
aF0.0779208891805673
aF0.0971709537266317
aF0.11186268853469983
aF0.1134258384608573
aF0.127941939618863
aF0.1910644818010236
aF0.22496283334123962
aF0.19680760758547045
aF0.18971879149562235
aF0.15315404942239133
aF0.20018160701512094
aF0.23382692464769442
aF0.13763808046628692
aF0.17119749911669707
aF0.23864412005091903
aF3.4785228305369005
aF0.48155144431057245
aF2.5872705249325545
aF0.4084796929689761
aF1.1422568855678505
aF0.703630345891318
aF3.85349900464634
aF3.665223091737571
aF0.7199368796267659
aF0.41568439661595313
aF0.4200656296163412
aF0.30735867047422494
aF0.35907742362767686
aF0.4039369776120753
aF0.3533815119149668
aF0.2749087899730976
aF0.34072974521843225
aF0.34294912628784285
aF0.246791532160612
aF0.428054332590178
aF20.336056654547985
aF17.96075584217663
aF2.187843953219098
aF2.41100311879484
aF4.4250823602316185
aF2.314211254876892
aF18.781096839640984
aF3.397194180862548
aF13.078937494717758
aF3.107922502849036
aF21.96279948421388
aF19.29608060114414
aF129.64901922112912
aF94.49857688639693
aF148.6025753960315
aF27.96986003000763
aF20.097536923670674
aF20.263692198806407
aF130.41507582907533
aF22.845776084434384
aF0.6206370705996845
aF0.4487910319590509
aF0.652711608310155
aF0.6429156905231078
aF0.6240936617278507
aF0.7776761033948908
aF0.7346836578349485
aF0.5594748813869314
aF0.49990360515917975
aF0.7637005618084389
aF369.3989442997453
aF320.9178174603427
aF1801.5633474970205
aF335.6183138749153
aF1995.8288388603726
aF1751.8325682410791
aF317.5013083592098
aF1290.974026611407
aF280.6691999727243
aF323.8750532030698
aF1.1375497590164396
aF1.4044207676818343
aF1.4242572659484336
aF0.9185310506680685
aF0.8248973679206233
aF1.0278790785704237
aF1.1841724101965427
aF1.2010788568213844
aF1.3540482170319843
aF1.1465145605003464
aF104970.46805744823
aF17702.53430719523
aF95415.85258779273
aF17694.63431413255
aF13942.079140247339
aF17891.638549795895
aF18491.094319814878
aF92386.83076542124
aF17727.037586128983
aF68356.04564498347
aF2.500501148612511
aF2.192002498386324
aF1.5270268195438828
aF2.2185520063373874
aF2.111188846569482
aF1.9025410724980256
aF1.7004274092809073
aF2.6413272991371133
aF2.1183951624212685
aF2.59846444159949
aF4051018.0709510036
aF3148481.070066659
aF4074451.8950620014
aF4075081.050590813
aF21282785.13903362
aF21985011.459621597
aF15755319.429632155
aF4079835.1863946286
aF24130150.064913396
aF4114245.775648392
aF3.5399148270912617
aF4.908767500746095
aF4.081715109902092
aF4.127808725440963
aF2.840876135531171
aF3.165266454244627
aF3.943127730138229
aF4.829130617320084
aF4.650231974532738
aF3.9233509744075996
aF36556374550.91776
aF26192806528.742638
aF6588760538.652034
aF5205750466.676979
aF35388452645.20859
aF6627123440.019318
aF6636514317.917132
aF6627253585.229816
aF40203440698.56189
aF6626592457.053218
aF8.702478718257211
aF7.618581639819121
aF7.7324673634596115
aF7.323640424815948
aF5.305891124499696
aF5.908103550576592
aF9.03125383479284
aF7.377661500794641
aF6.619893316140429
aF9.16970200338951
aF3684261751822120.5
aF524029812530794.8
aF642508373834155.9
aF3566425444096378.0
aF4051696323345463.0
aF645625031010017.1
aF645570483122569.9
aF645631276478123.6
aF2639981453073197.0
aF645570209160772.9
aF16.898557931412103
aF16.301145709890598
aF12.398487541672788
aF11.069329927787802
aF9.937218712743705
aF14.471562724462787
aF14.273207541370386
aF13.829943067800095
aF13.724978168108898
aF17.132800327115675
asg9
(lp34
F0.0047286605834960934
aF0.004551923274993897
aF0.005420506000518799
aF0.0038296473026275635
aF0.006081891059875488
aF0.006722517013549804
aF0.005739840269088746
aF0.005886107683181763
aF0.0075396871566772465
aF0.007019855976104736
aF0.006301116943359375
aF0.0061255812644958494
aF0.0041455507278442385
aF0.008049745559692383
aF0.007201986312866211
aF0.005869965553283692
aF0.004879302978515625
aF0.0075039839744567875
aF0.005156257152557373
aF0.006504979133605957
aF0.005194177627563476
aF0.007300300598144531
aF0.0068070578575134275
aF0.004364452362060547
aF0.005692086219787598
aF0.005563759803771973
aF0.006521844863891602
aF0.0045079803466796875
aF0.005875788927078247
aF0.0036379337310791016
aF0.006998441219329834
aF0.007733237743377685
aF0.004559904336929321
aF0.0053264045715332034
aF0.0073061370849609375
aF0.005985677242279053
aF0.004519178867340088
aF0.005956052541732788
aF0.0037063157558441164
aF0.006229846477508545
aF0.0074748706817626956
aF0.007985787391662598
aF0.008175826072692871
aF0.009075675010681152
aF0.00767120361328125
aF0.006176567077636719
aF0.01010279655456543
aF0.009393410682678223
aF0.00527395248413086
aF0.006557507514953613
aF0.007905387878417968
aF0.008070322275161744
aF0.009610061645507813
aF0.006389923095703125
aF0.004392900466918945
aF0.009967565536499023
aF0.00913177490234375
aF0.007494564056396484
aF0.005343246459960938
aF0.005677700042724609
aF0.014026021957397461
aF0.008606028556823731
aF0.011318550109863282
aF0.007377243041992188
aF0.010698771476745606
aF0.010426521301269531
aF0.011092541217803955
aF0.013036638498306274
aF0.009237053990364076
aF0.012612146139144898
aF0.00921630859375
aF0.01550912857055664
aF0.01624259948730469
aF0.01307220458984375
aF0.006089705228805542
aF0.013542401790618898
aF0.016490936279296875
aF0.011543452739715576
aF0.007494580745697022
aF0.008663959801197052
aF0.016711175441741943
aF0.016998767852783203
aF0.013858813047409059
aF0.016032791137695315
aF0.012939167022705079
aF0.01888653039932251
aF0.011091083288192749
aF0.02093939781188965
aF0.015752792358398438
aF0.019573688507080078
aF0.036895370483398436
aF0.031212329864501953
aF0.012443533539772034
aF0.03550631999969483
aF0.01687910556793213
aF0.026785707473754885
aF0.03692507743835449
aF0.021788477897644043
aF0.015932369232177734
aF0.010198831558227539
aF0.030040991306304932
aF0.025138831138610842
aF0.025494766235351563
aF0.033287239074707035
aF0.027064704895019533
aF0.022173643112182617
aF0.02663135528564453
aF0.020583534240722658
aF0.031127601861953735
aF0.017682355642318726
aF0.04423799514770508
aF0.03420509696006775
aF0.042469596862792974
aF0.0550731897354126
aF0.029603576660156252
aF0.0369629979133606
aF0.042134761810302734
aF0.05027503967285157
aF0.04506340026855469
aF0.05178871750831604
aF0.021381735801696777
aF0.02466452121734619
aF0.12256121635437012
aF0.10652110576629639
aF0.12109527587890626
aF0.12249755859375
aF0.032048273086547854
aF0.04311313629150391
aF0.04892730712890625
aF0.0695831298828125
aF0.1968703269958496
aF0.11974674463272095
aF0.06036457419395447
aF0.5547552108764648
aF0.5081035494804382
aF0.6532573699951172
aF0.6131420135498047
aF0.12933588027954102
aF0.07571393251419067
aF0.05652332305908203
aF0.07306880950927734
aF0.05876937508583069
aF0.09467763900756837
aF0.08626738786697388
aF0.07245928049087524
aF0.0510406494140625
aF0.06369402408599854
aF0.07626113891601563
aF0.07760429382324219
aF0.0887373447418213
aF0.12892556190490723
aF0.1567150354385376
aF0.1346569061279297
aF0.12824857234954834
aF0.10371944308280945
aF0.1371455192565918
aF0.1520494520664215
aF0.08970281481742859
aF0.11223194003105164
aF0.16643619537353516
aF2.9132513999938965
aF0.2466287612915039
aF2.1329565048217773
aF0.20868587493896484
aF0.5924859046936035
aF0.36336421966552734
aF3.2327919006347656
aF3.092989921569824
aF0.47961997985839844
aF0.21267986297607422
aF0.27434349060058594
aF0.2014419436454773
aF0.24619293212890625
aF0.2823711633682251
aF0.2413158416748047
aF0.1862310767173767
aF0.23071521520614624
aF0.23230934143066406
aF0.16095611453056335
aF0.2987666130065918
aF17.21181869506836
aF15.064697265625
aF1.118316650390625
aF1.236830711364746
aF2.2605972290039062
aF1.182220458984375
aF15.75164794921875
aF2.1191349029541016
aF10.753800392150879
aF1.5896072387695312
aF13.116016387939453
aF9.865150451660156
aF104.33099746704102
aF74.15672302246094
aF121.69864654541016
aF14.37614917755127
aF10.264549255371094
aF10.456814765930176
aF102.5969123840332
aF11.662445068359375
aF0.4191216230392456
aF0.29264748096466064
aF0.448486328125
aF0.4399681091308594
aF0.4222602844238281
aF0.542963981628418
aF0.511528730392456
aF0.3670719861984253
aF0.339324951171875
aF0.4975007176399231
aF189.54029083251953
aF164.6430492401123
aF1422.94921875
aF171.74148559570312
aF1600.2082824707031
aF1391.754150390625
aF162.15591430664062
aF1009.9130630493164
aF166.9734001159668
aF167.14754104614258
aF0.7721357345581055
aF0.9135690927505493
aF0.9958887100219727
aF0.6229794025421143
aF0.5389819145202637
aF0.6727521419525146
aF0.8079414367675781
aF0.824462890625
aF0.9439654350280762
aF0.7756881713867188
aF84004.30679321289
aF9124.479293823242
aF75347.13745117188
aF9124.479293823242
aF8325.414657592773
aF9146.232604980469
aF9528.217315673828
aF73315.62042236328
aF9066.352844238281
aF53422.93739318848
aF1.746063232421875
aF1.49322509765625
aF0.998776912689209
aF1.525390625
aF1.427922248840332
aF1.248300552368164
aF1.1572494506835938
aF1.8444404602050781
aF1.4348907470703125
aF1.7008819580078125
aF2089344.2630767822
aF1869729.995727539
aF2099437.713623047
aF2099437.713623047
aF16899871.826171875
aF17342193.603515625
aF12294593.811035156
aF2086858.7493896484
aF19351181.030273438
aF2119624.614715576
aF2.322657585144043
aF3.4269485473632812
aF2.7837982177734375
aF2.8365707397460938
aF1.852585792541504
aF2.152592658996582
aF2.679168701171875
aF3.1660995483398438
aF3.252042770385742
aF2.6548776626586914
aF28854248046.875
aF20465965270.996094
aF3411586284.637451
aF3097612380.9814453
aF28133316040.039062
aF3394889831.5429688
aF3394889831.5429688
aF3394889831.5429688
aF32197471618.652344
aF3394889831.5429688
aF6.067569732666016
aF5.2049560546875
aF5.306640625
aF4.971284866333008
aF3.460874557495117
aF4.008275985717773
aF5.883486747741699
aF4.998291015625
aF4.338356018066406
aF6.395515441894531
aF2910128784179687.5
aF311621665954589.9
aF331065177917480.5
aF2833213806152344.0
aF3250579833984375.0
aF329504013061523.44
aF329504013061523.44
aF331293940544128.44
aF2058856582641601.5
aF329504013061523.44
aF11.075820922851562
aF11.332328796386719
aF8.1331787109375
aF7.502262592315674
aF6.498435974121094
aF9.92578125
aF9.727294921875
aF9.3612060546875
aF9.307937622070312
aF11.990346908569336
asg11
(lp35
F0.01192188024520874
aF0.010698214769363404
aF0.012973122596740723
aF0.009740570187568664
aF0.013962256908416749
aF0.016435980796813965
aF0.013553551435470582
aF0.013693764209747314
aF0.01648944616317749
aF0.01572221040725708
aF0.014644050598144531
aF0.014448738098144532
aF0.010453153848648072
aF0.017592265605926513
aF0.017495357990264894
aF0.013921520709991456
aF0.011439272165298463
aF0.01676305890083313
aF0.012858153581619264
aF0.014895241260528564
aF0.012512857913970948
aF0.016062504053115843
aF0.01534009099006653
aF0.010360052585601806
aF0.013274450302124024
aF0.013219058513641357
aF0.015985838174819945
aF0.011453742980957032
aF0.013606762886047364
aF0.009358587265014649
aF0.01724091649055481
aF0.017389634847640993
aF0.01096868395805359
aF0.013166643381118774
aF0.016547971963882448
aF0.014325770139694214
aF0.011973612308502198
aF0.014166834354400635
aF0.009739431738853456
aF0.014620246887207032
aF0.01751184344291687
aF0.018333051204681396
aF0.01863657832145691
aF0.021844041347503663
aF0.017984738349914552
aF0.014338965713977815
aF0.021888573169708252
aF0.020908761024475097
aF0.01317557692527771
aF0.016169238090515136
aF0.019204843044281005
aF0.019244489669799806
aF0.02203608512878418
aF0.016642833948135375
aF0.012131088972091674
aF0.023130826950073242
aF0.022855305671691896
aF0.01839947819709778
aF0.014857560396194458
aF0.014044100046157838
aF0.03012584447860718
aF0.019906756281852723
aF0.02572786808013916
aF0.018360702693462374
aF0.024864377081394197
aF0.024344468116760255
aF0.025374884605407714
aF0.028914773464202882
aF0.022478076815605166
aF0.03020097017288208
aF0.02596379816532135
aF0.03901138603687287
aF0.037983006238937383
aF0.032457473874092105
aF0.018533436954021456
aF0.033393746614456175
aF0.03986007869243622
aF0.029944494366645813
aF0.022410757839679718
aF0.022458370029926303
aF0.03799497485160828
aF0.038501212000846864
aF0.033747732639312744
aF0.037220293283462526
aF0.02982199788093567
aF0.045225572586059574
aF0.02758045494556427
aF0.04494481980800629
aF0.03661012649536133
aF0.04325950741767884
aF0.08867639899253846
aF0.07903933525085449
aF0.040726327896118165
aF0.09046388864517213
aF0.044443932175636296
aF0.07098520398139954
aF0.09292665719985962
aF0.06143654584884644
aF0.04918115437030793
aF0.03485746681690216
aF0.07193597555160523
aF0.058274573087692266
aF0.05918636918067932
aF0.07121127247810365
aF0.06129996776580811
aF0.05376200079917908
aF0.06039405465126038
aF0.04744062125682831
aF0.06861634850502014
aF0.043971124291419986
aF0.1005561113357544
aF0.07881521582603455
aF0.09823716878890992
aF0.11817480325698854
aF0.0731276035308838
aF0.0892943561077118
aF0.09707356691360475
aF0.11958976984024049
aF0.10180281400680542
aF0.11386420726776124
aF0.07929784059524536
aF0.08798836469650269
aF0.30356042385101323
aF0.27884769439697266
aF0.29928202629089357
aF0.2659752130508423
aF0.10929882526397705
aF0.10704724788665772
aF0.15444761514663696
aF0.2035503387451172
aF0.6473529934883118
aF0.42152583599090576
aF0.22645771503448486
aF1.1272008419036865
aF0.8448795080184937
aF1.090917706489563
aF1.0644965171813965
aF0.30588284134864807
aF0.28028419613838196
aF0.21488057076931
aF0.16901674270629885
aF0.13541610538959503
aF0.20200324058532715
aF0.20579154491424562
aF0.16694003343582153
aF0.1260820746421814
aF0.15348284244537355
aF0.1727270007133484
aF0.17514276504516602
aF0.19596110582351686
aF0.2974589765071869
aF0.34517890214920044
aF0.3049899935722351
aF0.294421523809433
aF0.23872852325439453
aF0.30872154235839844
aF0.3627151548862457
aF0.22221966087818146
aF0.2704441547393799
aF0.3560563623905182
aF4.401040077209473
aF0.951622724533081
aF3.3383965492248535
aF0.8084734678268433
aF2.2227110862731934
aF1.3813750743865967
aF4.859311103820801
aF4.593958854675293
aF1.134170413017273
aF0.8239466547966003
aF0.650909960269928
aF0.48541259765625
aF0.554192841053009
aF0.6186323165893555
aF0.5465662479400635
aF0.42754971981048584
aF0.5296552181243896
aF0.5340567827224731
aF0.39873456954956055
aF0.6374453902244568
aF25.413389205932617
aF22.584976196289062
aF4.332489490509033
aF4.784921169281006
aF8.757817268371582
aF4.580060005187988
aF23.607990264892578
aF5.551488399505615
aF16.96757698059082
aF6.158324241638184
aF38.71657609939575
aF38.21874380111694
aF167.7387237548828
aF125.59817314147949
aF190.04571914672852
aF55.393972396850586
aF39.76606369018555
aF39.91421699523926
aF171.75848007202148
aF45.18167495727539
aF0.9621816277503967
aF0.7249719500541687
aF1.0085808038711548
aF0.9965019226074219
aF0.9732191562652588
aF1.158462405204773
aF1.1266878843307495
aF0.8845296502113342
aF0.7790229916572571
aF1.1837478876113892
aF730.3339004516602
aF634.400224685669
aF2381.16512298584
aF665.3465747833252
aF2605.682373046875
aF2301.0704040527344
aF628.2109260559082
aF1742.4039840698242
aF497.35307693481445
aF632.8540802001953
aF1.7680530548095703
aF2.173736572265625
aF2.1248178482055664
aF1.4302375316619873
aF1.3301658630371094
aF1.621124029159546
aF1.8299399614334106
aF1.854097604751587
aF2.068084955215454
aF1.7877944707870483
aF136818.7427520752
aF35110.135078430176
aF126085.99662780762
aF34406.349658966064
aF24798.383712768555
aF35433.573722839355
aF36663.68007659912
aF121584.56802368164
aF35124.10879135132
aF92170.6485748291
aF3.825359344482422
aF3.3820672035217285
aF2.464904546737671
aF3.430382490158081
aF3.278095245361328
aF3.008017063140869
aF2.648132562637329
aF3.935279369354248
aF3.307114601135254
aF4.020503997802734
aF7878444.790840149
aF5569246.292114258
aF8078438.04359436
aF8078438.04359436
aF28026273.727416992
aF29020448.684692383
aF21211875.915527344
aF8084734.678268433
aF31514842.987060547
aF8156115.412712097
aF5.596884250640869
aF7.311702251434326
aF6.305139541625977
aF6.368760585784912
aF4.5893874168396
aF4.92928409576416
aF6.143393039703369
aF7.483950614929199
aF7.124731540679932
aF6.094829082489014
aF48284736633.30078
aF35288913726.80664
aF12864321470.26062
aF9226661682.128906
aF46514495849.609375
aF13152199983.596802
aF13152199983.596802
aF13152199983.596802
aF52440376281.73828
aF13152199983.596802
aF13.293123245239258
aF11.758526802062988
aF11.903098106384277
aF11.383355140686035
aF8.57358169555664
aF9.20220947265625
aF13.963106155395508
aF11.490589141845703
aF10.454092025756836
aF13.645405769348145
aF4869813156127930.0
aF928207683563232.4
aF1258586168289184.5
aF4684321975708008.0
aF5293047332763672.0
aF1276537060737609.8
aF1276537060737609.8
aF1276537060737609.8
aF3552147293090820.5
aF1276537060737609.8
aF26.211020946502686
aF24.960468292236328
aF19.5767822265625
aF17.22371220588684
aF16.037639617919922
aF22.321643829345703
aF22.03175163269043
aF21.520509719848633
aF21.368324279785156
aF25.566012859344482
asg13
(lp36
F0.0074609375000000006
aF0.006796875
aF0.0082421875
aF0.0059765625
aF0.008984375000000001
aF0.01046875
aF0.0086328125
aF0.0087890625
aF0.0109765625
aF0.0101953125
aF0.009375
aF0.0091796875
aF0.0064453125000000005
aF0.0116796875
aF0.011171875
aF0.0088671875
aF0.0073046875
aF0.0108984375
aF0.008046875
aF0.009609375
aF0.007929687500000001
aF0.0106640625
aF0.009921875
aF0.00658203125
aF0.0084765625
aF0.0083984375
aF0.01015625
aF0.00716796875
aF0.0087109375
aF0.0057421875
aF0.0108984375
aF0.011484375
aF0.0069335937500000005
aF0.00828125
aF0.010703125
aF0.0091015625
aF0.0073828125000000005
aF0.0090234375
aF0.0059179687500000005
aF0.0093359375
aF0.0112109375
aF0.011796875
aF0.011992187500000001
aF0.013984375
aF0.011484375
aF0.0091796875
aF0.014609375
aF0.01359375
aF0.0081640625
aF0.0101953125
aF0.012109375
aF0.0122265625
aF0.0141796875
aF0.0103125
aF0.007265625
aF0.01515625
aF0.014375
aF0.0116015625
aF0.008984375000000001
aF0.0087890625
aF0.020214843750000003
aF0.012744140625
aF0.016640625
aF0.011376953125
aF0.01591796875
aF0.015625
aF0.016328125
aF0.018798828125
aF0.014208984375
aF0.019433593750000002
aF0.015625
aF0.0244140625
aF0.024316406250000002
aF0.0203125
aF0.010791015625
aF0.020898437500000002
aF0.025781250000000002
aF0.0185546875
aF0.01298828125
aF0.013916015625
aF0.02451171875
aF0.02490234375
aF0.021386718750000002
aF0.023828125000000002
aF0.019091796875
aF0.0291015625
aF0.01708984375
aF0.030078125
aF0.0234375
aF0.028125
aF0.056054687500000006
aF0.049218750000000006
aF0.022363281250000002
aF0.056054687500000006
aF0.027539062500000003
aF0.0435546875
aF0.05859375
aF0.03662109375
aF0.027734375000000002
aF0.019140625
aF0.046289062500000006
aF0.037402343750000004
aF0.037890625000000004
aF0.047656250000000004
aF0.0396484375
aF0.033984375000000004
aF0.0390625
aF0.03037109375
aF0.044726562500000004
aF0.027246093750000002
aF0.06503906250000001
aF0.050585937500000004
aF0.062890625
aF0.079296875
aF0.045312500000000006
aF0.056445312500000004
aF0.062304687500000004
aF0.07695312500000001
aF0.06601562500000001
aF0.0744140625
aF0.04052734375
aF0.046289062500000006
aF0.19140625
aF0.17109375000000002
aF0.19062500000000002
aF0.1875
aF0.058984375000000006
aF0.06699218750000001
aF0.0859375
aF0.11796875000000001
aF0.35546875
aF0.2236328125
aF0.1162109375
aF0.83203125
aF0.638671875
aF0.83984375
aF0.8046875
aF0.1943359375
aF0.14501953125
aF0.109375
aF0.10820312500000001
aF0.0869140625
aF0.135546875
aF0.132421875
aF0.107421875
aF0.078125
aF0.09726562500000001
aF0.11171875
aF0.11328125
aF0.127734375
aF0.19091796875
aF0.2255859375
aF0.197265625
aF0.189453125
aF0.15283203125
aF0.2001953125
aF0.2333984375
aF0.1376953125
aF0.17138671875
aF0.23828125
aF3.484375
aF0.482421875
aF2.5859375
aF0.408203125
aF1.140625
aF0.703125
aF3.859375
aF3.671875
aF0.71875
aF0.416015625
aF0.419921875
aF0.3076171875
aF0.359375
aF0.404296875
aF0.353515625
aF0.2744140625
aF0.3408203125
aF0.3427734375
aF0.2470703125
aF0.427734375
aF20.3125
aF17.9375
aF2.1875
aF2.40625
aF4.421875
aF2.3125
aF18.75
aF3.40625
aF13.0625
aF3.109375
aF22.03125
aF19.296875
aF129.53125
aF94.375
aF148.125
aF27.96875
aF20.078125
aF20.234375
aF130.625
aF22.8125
aF0.619140625
aF0.44921875
aF0.65234375
aF0.64453125
aF0.623046875
aF0.77734375
aF0.736328125
aF0.560546875
aF0.49999999999999994
aF0.763671875
aF368.75
aF320.3125
aF1800.0
aF335.9375
aF1993.75
aF1750.0
aF317.1875
aF1293.75
aF280.46875
aF323.4375
aF1.140625
aF1.40234375
aF1.42578125
aF0.91796875
aF0.82421875
aF1.02734375
aF1.18359375
aF1.19921875
aF1.3515625
aF1.14453125
aF104687.5
aF17656.25
aF95312.5
aF17656.25
aF13984.375
aF17890.625
aF18437.5
aF92187.5
aF17734.375
aF68437.5
aF2.5
aF2.1875
aF1.52734375
aF2.21875
aF2.109375
aF1.90625
aF1.6953125
aF2.640625
aF2.1171875
aF2.59375
aF4042968.75
aF3140625.0
aF4062500.0
aF4062500.0
aF21250000.0
aF21937500.0
aF15750000.0
aF4082031.25
aF24187500.0
aF4101562.5
aF3.546875
aF4.90625
aF4.078125
aF4.140625
aF2.84375
aF3.171875
aF3.953125
aF4.828125
aF4.65625
aF3.921875
aF36500000000.0
aF26125000000.0
aF6601562500.0
aF5203125000.0
aF35375000000.0
aF6640625000.0
aF6640625000.0
aF6640625000.0
aF40125000000.0
aF6640625000.0
aF8.6875
aF7.625
aF7.71875
aF7.34375
aF5.3125
aF5.90625
aF9.03125
aF7.375
aF6.625
aF9.15625
aF3681250000000000.0
aF523437500000000.0
aF640625000000000.0
aF3562500000000000.0
aF4050000000000000.0
aF644531250000000.0
aF644531250000000.0
aF644531250000000.0
aF2637500000000000.0
aF644531250000000.0
aF16.953125
aF16.3125
aF12.375
aF11.0546875
aF9.9375
aF14.4375
aF14.25
aF13.8125
aF13.75
aF17.109375
asg15
(lp37
F0.00308929443359375
aF0.00315948486328125
aF0.00367034912109375
aF0.002498016357421875
aF0.0042816162109375
aF0.0046209716796875005
aF0.003945465087890625
aF0.004085540771484375
aF0.005188140869140625
aF0.00517730712890625
aF0.00439453125
aF0.00423126220703125
aF0.0027191162109375003
aF0.0055661010742187505
aF0.0049749755859375
aF0.0039486694335937505
aF0.003424072265625
aF0.00553436279296875
aF0.0033633422851562502
aF0.0045794677734375
aF0.00346923828125
aF0.004998779296875
aF0.00499969482421875
aF0.003033905029296875
aF0.00390716552734375
aF0.0038055419921875
aF0.0044830322265625
aF0.0029119873046875
aF0.004117279052734375
aF0.002332763671875
aF0.004810638427734375
aF0.00524871826171875
aF0.003087615966796875
aF0.00349365234375
aF0.0052679443359375
aF0.00405303955078125
aF0.0029127502441406252
aF0.004053497314453125
aF0.0022885894775390627
aF0.00430328369140625
aF0.0050799560546875
aF0.0056219482421875
aF0.0058087158203125
aF0.0062274169921875
aF0.00538330078125
aF0.00437469482421875
aF0.00701934814453125
aF0.0069561767578125
aF0.003539886474609375
aF0.0043011474609375
aF0.0052978515625
aF0.005492401123046875
aF0.0068682861328125
aF0.004189453125
aF0.002611083984375
aF0.006749267578125
aF0.0062890625
aF0.005030364990234375
aF0.003369140625
aF0.003810882568359375
aF0.00979156494140625
aF0.006123161315917969
aF0.00812530517578125
aF0.004977416992187501
aF0.0074615478515625
aF0.0072021484375
aF0.00784515380859375
aF0.009693145751953125
aF0.006049919128417969
aF0.008654022216796875
aF0.005859375
aF0.01068115234375
aF0.0113983154296875
aF0.00872802734375
aF0.003540802001953125
aF0.00897979736328125
aF0.011279296875
aF0.007610321044921875
aF0.004616928100585937
aF0.005816459655761719
aF0.01187286376953125
aF0.012256622314453125
aF0.009189605712890625
aF0.0113555908203125
aF0.009247589111328126
aF0.012959289550781251
aF0.007610321044921875
aF0.01468658447265625
aF0.010986328125
aF0.01461181640625
aF0.025399780273437502
aF0.020764160156250003
aF0.0074253082275390625
aF0.024742889404296878
aF0.011295318603515625
aF0.017694091796875002
aF0.025177001953125
aF0.014019012451171875
aF0.0097503662109375
aF0.005831909179687501
aF0.02061309814453125
aF0.0175323486328125
aF0.0180572509765625
aF0.023455810546875
aF0.01951446533203125
aF0.0146026611328125
aF0.0189208984375
aF0.01471099853515625
aF0.023236846923828127
aF0.012133026123046876
aF0.031757354736328125
aF0.024700164794921875
aF0.030216979980468753
aF0.0390289306640625
aF0.02017822265625
aF0.024474334716796876
aF0.029205322265625
aF0.0342681884765625
aF0.0324920654296875
aF0.038660430908203126
aF0.01203155517578125
aF0.014103698730468751
aF0.085235595703125
aF0.0715118408203125
aF0.0833984375
aF0.08349609375
aF0.0188934326171875
aF0.02878570556640625
aF0.029541015625
aF0.044238281250000004
aF0.11663818359375
aF0.06901168823242188
aF0.034046173095703125
aF0.37701416015625
aF0.42162322998046875
aF0.472412109375
aF0.427490234375
aF0.09033584594726562
aF0.04305267333984375
aF0.0316162109375
aF0.051988220214843756
aF0.042438507080078125
aF0.0667144775390625
aF0.05948638916015625
aF0.05077362060546875
aF0.0347900390625
aF0.04217376708984375
aF0.054986572265625006
aF0.0561981201171875
aF0.0668609619140625
aF0.09173011779785156
aF0.11808013916015625
aF0.0970916748046875
aF0.0902862548828125
aF0.07522201538085938
aF0.09931564331054688
aF0.10484695434570312
aF0.061855316162109375
aF0.07431221008300781
aF0.117279052734375
aF2.592864990234375
aF0.1394500732421875
aF1.87884521484375
aF0.1179962158203125
aF0.33416748046875
aF0.2032470703125
aF2.856842041015625
aF2.76824951171875
aF0.331298828125
aF0.1202545166015625
aF0.1869964599609375
aF0.13338088989257812
aF0.17828369140625
aF0.2116241455078125
aF0.1739959716796875
aF0.13506317138671875
aF0.16242218017578125
aF0.1660308837890625
aF0.11098861694335938
aF0.2105255126953125
aF15.472412109375
aF13.453125
aF0.63232421875
aF0.695556640625
aF1.2781982421875
aF0.66845703125
aF13.95263671875
aF1.3970947265625
aF9.4141845703125
aF0.8988037109375
aF8.60595703125
aF5.5780029296875
aF86.5228271484375
aF61.1962890625
aF102.41455078125
aF8.084716796875
aF5.8038330078125
aF5.8489990234375
aF85.21240234375
aF6.59423828125
aF0.2950592041015625
aF0.2017974853515625
aF0.326171875
aF0.317230224609375
aF0.301788330078125
aF0.382598876953125
aF0.3854217529296875
aF0.24304962158203125
aF0.24609375
aF0.34305572509765625
aF106.591796875
aF92.59033203125
aF1181.25
aF97.10693359375
aF1339.55078125
aF1162.109375
aF91.68701171875
aF833.8623046875
aF109.55810546875
aF93.49365234375
aF0.5435791015625
aF0.6299591064453125
aF0.701751708984375
aF0.451812744140625
aF0.37347412109375
aF0.4454498291015625
aF0.582550048828125
aF0.599609375
aF0.70745849609375
aF0.55438232421875
aF70745.849609375
aF5103.759765625
aF62548.828125
aF5103.759765625
aF5462.646484375
aF5171.5087890625
aF5329.58984375
aF61218.26171875
aF5126.3427734375
aF44110.107421875
aF1.30859375
aF1.07666015625
aF0.69207763671875
aF1.109375
aF1.0052490234375
aF0.8265380859375
aF0.83441162109375
aF1.2996826171875
aF1.0255126953125
aF1.1651611328125
aF1168670.654296875
aF1226806.640625
aF1174316.40625
aF1174316.40625
aF14111328.125
aF14396484.375
aF10151367.1875
aF1179962.158203125
aF16250976.5625
aF1185607.91015625
aF1.53790283203125
aF2.414794921875
aF2.0072021484375
aF2.05413818359375
aF1.2774658203125
aF1.5611572265625
aF1.914794921875
aF2.16888427734375
aF2.437255859375
aF1.8690185546875
aF23953125000.0
aF16838378906.25
aF1908264160.15625
aF2032470703.125
aF23491210937.5
aF1919555664.0625
aF1919555664.0625
aF1919555664.0625
aF27115722656.25
aF1919555664.0625
aF4.54736328125
aF3.7529296875
aF3.859375
aF3.499755859375
aF2.386474609375
aF2.906982421875
aF4.0570068359375
aF3.572265625
aF2.87255859375
aF4.506591796875
aF2415820312500000.0
aF204467773437500.0
aF185180664062500.0
aF2365722656250000.0
aF2721093750000000.0
aF186309814453125.0
aF186309814453125.0
aF186309814453125.0
aF1699951171875000.0
aF186309814453125.0
aF7.5494384765625
aF8.53857421875
aF5.4140625
aF5.44097900390625
aF4.5029296875
aF7.21875
aF7.013671875
aF6.6904296875
aF6.552734375
aF8.48785400390625
asg17
(lp38
F0.018734575510025026
aF0.01669584631919861
aF0.02024611234664917
aF0.015604337453842163
aF0.021580443382263184
aF0.024977035522460937
aF0.021191933155059815
aF0.021329989433288576
aF0.024735870361328127
aF0.0241979718208313
aF0.022767462730407716
aF0.022548987865447997
aF0.016741098165512086
aF0.026344199180603028
aF0.026634767055511474
aF0.02166538715362549
aF0.017920035123825073
aF0.025847451686859133
aF0.02020587682723999
aF0.02306523323059082
aF0.019581707715988158
aF0.024181253910064697
aF0.02368246078491211
aF0.01616810441017151
aF0.020599570274353027
aF0.02062992572784424
aF0.024482259750366213
aF0.018160533905029298
aF0.021154766082763673
aF0.014992402791976929
aF0.026432895660400392
aF0.02622445821762085
aF0.017211759090423585
aF0.020676286220550538
aF0.02567221164703369
aF0.022461385726928712
aF0.018930624723434448
aF0.022150845527648927
aF0.015738110542297363
aF0.022688004970550537
aF0.02722609043121338
aF0.02833606004714966
aF0.028805201053619386
aF0.033315200805664066
aF0.028173744678497314
aF0.02229313999414444
aF0.03271661043167114
aF0.032239832878112794
aF0.021094033718109133
aF0.02532411575317383
aF0.03007845163345337
aF0.03003333330154419
aF0.03405956983566284
aF0.026415159702301027
aF0.019680883884429932
aF0.035057766437530516
aF0.03523913145065308
aF0.028817095756530763
aF0.02371769905090332
aF0.022069525718688966
aF0.045185917615890504
aF0.030949518084526062
aF0.03991373062133789
aF0.029395395517349245
aF0.0386572539806366
aF0.037919980287551884
aF0.03922010898590088
aF0.04458453953266144
aF0.03527198433876038
aF0.04600223898887634
aF0.04162088930606842
aF0.06075379848480225
aF0.05905310511589051
aF0.05077614188194275
aF0.030471011996269226
aF0.05247642993927002
aF0.06063389778137207
aF0.04732041954994202
aF0.036425557732582096
aF0.035024887323379515
aF0.05883509516716004
aF0.05973005294799805
aF0.052812731266021734
aF0.0578673005104065
aF0.046364986896514894
aF0.06854974627494813
aF0.04415617287158966
aF0.06729543805122376
aF0.05691865682601929
aF0.06670310497283936
aF0.13850969076156616
aF0.1248369812965393
aF0.06779037117958069
aF0.1423325538635254
aF0.06869837045669556
aF0.11275759935379029
aF0.13488484621047975
aF0.09926870465278625
aF0.08104040026664734
aF0.05802145004272461
aF0.10903549194335938
aF0.09077095389366151
aF0.09201849102973939
aF0.10662394762039185
aF0.09463660717010498
aF0.08397452235221864
aF0.09369420409202577
aF0.0737570881843567
aF0.10599707365036011
aF0.07039755582809448
aF0.15600085258483887
aF0.12276593446731568
aF0.15273171663284302
aF0.17629045248031616
aF0.11707693338394165
aF0.14011826515197753
aF0.15048415660858155
aF0.18126577138900757
aF0.15668418407440188
aF0.17534284591674806
aF0.12289445102214813
aF0.1403460144996643
aF0.42974576950073246
aF0.4203067302703858
aF0.42304382324218753
aF0.3693505525588989
aF0.178815495967865
aF0.1682188391685486
aF0.2604884147644043
aF0.33326728343963624
aF1.0775412321090698
aF0.6780151128768921
aF0.3523888885974884
aF1.5053220987319946
aF1.1406168937683105
aF1.4452197551727295
aF1.4155068397521973
aF0.4773668646812439
aF0.4397277534008026
aF0.3316737711429596
aF0.26277444362640384
aF0.21092988550662994
aF0.3029857635498047
aF0.3119243383407593
aF0.2580270290374756
aF0.20011484622955322
aF0.23907780647277832
aF0.2679654121398926
aF0.27039031982421874
aF0.3012129306793213
aF0.4633347690105438
aF0.5302199125289917
aF0.4708521068096161
aF0.45506587624549866
aF0.37115705013275146
aF0.47515174746513367
aF0.549778163433075
aF0.35270240902900696
aF0.4212665855884552
aF0.5331197381019592
aF5.731875896453857
aF1.4629483222961426
aF4.451985836029053
aF1.2379047870635986
aF3.4587414264678955
aF2.132188558578491
aF6.282958507537842
aF5.954501152038574
aF1.783108115196228
aF1.2615966796875
aF0.9883691072463989
aF0.7561195492744446
aF0.8529553413391113
aF0.9526501297950745
aF0.8479325771331787
aF0.6659696698188782
aF0.818649411201477
aF0.8318696022033691
aF0.6328631639480591
aF0.9535170793533325
aF32.65578079223633
aF29.45145606994629
aF6.6337480545043945
aF7.297272682189941
aF13.409646987915039
aF7.012819290161133
aF30.785493850708008
aF8.818351745605469
aF22.56709098815918
aF9.429398536682129
aF64.56373691558838
aF58.519134521484375
aF221.6252899169922
aF170.3565788269043
aF248.02112579345703
aF84.81719970703125
aF60.888328552246094
aF61.360907554626465
aF229.0024185180664
aF69.18051242828369
aF1.4871740341186523
aF1.1506603956222534
aF1.549457311630249
aF1.5384275913238525
aF1.513087511062622
aF1.7328758239746094
aF1.7306746244430542
aF1.3778178691864014
aF1.2134393453598022
aF1.7974525690078735
aF1118.260383605957
aF971.3702201843262
aF3190.496826171875
aF1018.7541007995605
aF3456.4334869384766
aF3091.5719985961914
aF961.8934631347656
aF2393.065071105957
aF850.0870704650879
aF980.7866096496582
aF2.7378244400024414
aF3.3006930351257324
aF3.187026023864746
aF2.2277989387512207
aF2.129589080810547
aF2.536940574645996
aF2.8389344215393066
aF2.8484034538269043
aF3.1847047805786133
aF2.7795276641845703
aF181489.84909057617
aF53544.921875
aF168941.23077392578
aF53539.42394256592
aF42385.95485687256
aF54254.57954406738
aF55914.16358947754
aF163130.8937072754
aF53780.741691589355
aF126136.79885864258
aF5.890783309936523
aF5.246875286102295
aF3.9292726516723633
aF5.270010471343994
aF5.066712856292725
aF4.685540676116943
aF4.1171159744262695
aF5.886552810668945
aF5.141651630401611
aF6.104902744293213
aF12259579.89692688
aF9519081.115722656
aF12320070.266723633
aF12320070.266723633
aF37603054.04663086
aF38884178.161621094
aF29132968.90258789
aF12379047.870635986
aF41859592.43774414
aF12438532.11402893
aF8.718177795410156
aF10.966861724853516
aF9.734050750732422
aF9.820178985595703
aF7.284180164337158
aF7.655677795410156
aF9.587230682373047
aF11.363945960998535
aF10.944106101989746
aF9.420332908630371
aF64696182250.97656
aF48569427490.234375
aF20018057823.181152
aF15770417213.439941
aF62493919372.55859
aF20138163566.589355
aF20138163566.589355
aF20138163566.589355
aF69562072753.90625
aF20138163566.589355
aF20.47047233581543
aF18.186767578125
aF18.319995880126953
aF17.62708854675293
aF13.607809066772461
aF14.333752632141113
aF21.240238189697266
aF17.898231506347656
aF16.2841739654541
aF20.466819763183594
aF6525009155273438.0
aF1586513423919677.8
aF1942660689353942.8
aF6293557357788086.0
aF7021218872070312.0
aF1954586386680603.0
aF1954586386680603.0
aF1954586386680603.0
aF4896069335937500.0
aF1954586386680603.0
aF39.87138032913208
aF38.34109878540039
aF30.4372615814209
aF26.828386783599854
aF25.56539535522461
aF34.460777282714844
aF34.17964553833008
aF33.521263122558594
aF33.027462005615234
aF38.27974319458008
assS'low'
p39
(dp40
g3
(lp41
I100
aI50
aI125
aI75
aI175
aI20
aI10
aI150
aI25
aI15
aI150
aI10
aI75
aI25
aI20
aI125
aI50
aI15
aI100
aI175
aI125
aI25
aI15
aI50
aI150
aI10
aI20
aI100
aI175
aI75
aI20
aI25
aI50
aI125
aI15
aI10
aI100
aI150
aI75
aI175
aI125
aI150
aI175
aI20
aI10
aI50
aI25
aI15
aI75
aI100
aI10
aI175
aI15
aI125
aI75
aI25
aI20
aI150
aI100
aI50
aI25
aI50
aI175
aI75
aI10
aI125
aI150
aI15
aI100
aI20
aI125
aI20
aI15
aI175
aI75
aI10
aI25
aI150
aI100
aI50
aI150
aI175
aI100
aI10
aI50
aI20
aI75
aI25
aI125
aI15
aI15
aI10
aI100
aI20
aI50
aI175
aI25
aI150
aI125
aI75
aI20
aI125
aI10
aI25
aI175
aI100
aI150
aI50
aI15
aI75
aI150
aI50
aI10
aI25
aI75
aI100
aI125
aI20
aI175
aI15
aI75
aI100
aI20
aI10
aI15
aI25
aI125
aI50
aI150
aI175
aI175
aI150
aI100
aI10
aI25
aI20
aI15
aI50
aI125
aI75
aI10
aI50
aI25
aI20
aI125
aI75
aI100
aI150
aI175
aI15
aI10
aI15
aI150
aI125
aI50
aI175
aI20
aI75
aI100
aI25
aI15
aI125
aI25
aI100
aI175
aI150
aI10
aI20
aI50
aI75
aI20
aI100
aI175
aI15
aI150
aI50
aI125
aI10
aI75
aI25
aI10
aI15
aI100
aI125
aI175
aI75
aI20
aI50
aI25
aI150
aI50
aI100
aI15
aI25
aI10
aI175
aI125
aI75
aI20
aI150
aI125
aI75
aI175
aI150
aI10
aI25
aI15
aI100
aI50
aI20
aI175
aI125
aI20
aI150
aI10
aI15
aI100
aI25
aI50
aI75
aI125
aI20
aI25
aI50
aI75
aI100
aI150
aI175
aI15
aI10
aI10
aI100
aI20
aI75
aI50
aI150
aI175
aI15
aI125
aI25
aI15
aI150
aI75
aI175
aI125
aI100
aI50
aI25
aI10
aI20
aI75
aI50
aI100
aI125
aI15
aI20
aI25
aI150
aI10
aI175
aI100
aI25
aI150
aI175
aI75
aI50
aI10
aI20
aI15
aI125
aI20
aI25
aI75
aI50
aI15
aI150
aI175
aI100
aI10
aI125
aI15
aI150
aI175
aI125
aI75
aI50
aI20
aI10
aI100
aI25
aI20
aI50
aI75
aI15
aI10
aI100
aI150
aI175
aI25
aI125
aI20
aI15
aI100
aI50
aI75
aI175
aI150
aI10
aI125
aI25
asg5
(lp42
I1000
aI1000
aI1000
aI1000
aI1000
aI1000
aI1000
aI1000
aI1000
aI1000
aI1172
aI1172
aI1172
aI1172
aI1172
aI1172
aI1172
aI1172
aI1172
aI1172
aI853
aI853
aI853
aI853
aI853
aI853
aI853
aI853
aI853
aI853
aI621
aI621
aI621
aI621
aI621
aI621
aI621
aI621
aI621
aI621
aI1610
aI1610
aI1610
aI1610
aI1610
aI1610
aI1610
aI1610
aI1610
aI1610
aI452
aI452
aI452
aI452
aI452
aI452
aI452
aI452
aI452
aI452
aI2212
aI2212
aI2212
aI2212
aI2212
aI2212
aI2212
aI2212
aI2212
aI2212
aI329
aI329
aI329
aI329
aI329
aI329
aI329
aI329
aI329
aI329
aI3039
aI3039
aI3039
aI3039
aI3039
aI3039
aI3039
aI3039
aI3039
aI3039
aI240
aI240
aI240
aI240
aI240
aI240
aI240
aI240
aI240
aI240
aI4175
aI4175
aI4175
aI4175
aI4175
aI4175
aI4175
aI4175
aI4175
aI4175
aI5736
aI5736
aI5736
aI5736
aI5736
aI5736
aI5736
aI5736
aI5736
aI5736
aI174
aI174
aI174
aI174
aI174
aI174
aI174
aI174
aI174
aI174
aI127
aI127
aI127
aI127
aI127
aI127
aI127
aI127
aI127
aI127
aI7880
aI7880
aI7880
aI7880
aI7880
aI7880
aI7880
aI7880
aI7880
aI7880
aI10826
aI10826
aI10826
aI10826
aI10826
aI10826
aI10826
aI10826
aI10826
aI10826
aI92
aI92
aI92
aI92
aI92
aI92
aI92
aI92
aI92
aI92
aI14874
aI14874
aI14874
aI14874
aI14874
aI14874
aI14874
aI14874
aI14874
aI14874
aI67
aI67
aI67
aI67
aI67
aI67
aI67
aI67
aI67
aI67
aI49
aI49
aI49
aI49
aI49
aI49
aI49
aI49
aI49
aI49
aI20434
aI20434
aI20434
aI20434
aI20434
aI20434
aI20434
aI20434
aI20434
aI20434
aI36
aI36
aI36
aI36
aI36
aI36
aI36
aI36
aI36
aI36
aI28072
aI28072
aI28072
aI28072
aI28072
aI28072
aI28072
aI28072
aI28072
aI28072
aI26
aI26
aI26
aI26
aI26
aI26
aI26
aI26
aI26
aI26
aI38566
aI38566
aI38566
aI38566
aI38566
aI38566
aI38566
aI38566
aI38566
aI38566
aI19
aI19
aI19
aI19
aI19
aI19
aI19
aI19
aI19
aI19
aI52983
aI52983
aI52983
aI52983
aI52983
aI52983
aI52983
aI52983
aI52983
aI52983
aI14
aI14
aI14
aI14
aI14
aI14
aI14
aI14
aI14
aI14
aI72790
aI72790
aI72790
aI72790
aI72790
aI72790
aI72790
aI72790
aI72790
aI72790
aI10
aI10
aI10
aI10
aI10
aI10
aI10
aI10
aI10
aI10
aI100000
aI100000
aI100000
aI100000
aI100000
aI100000
aI100000
aI100000
aI100000
aI100000
asg7
(lp43
F0.009279860379612422
aF0.009952320684683155
aF0.009215083173549785
aF0.008573244440597797
aF0.00918868971535139
aF0.02927752037183866
aF0.04888599718472441
aF0.009203495262279059
aF0.020772209574156777
aF0.05095354614914012
aF0.009780604891751317
aF0.0523487113702882
aF0.009123784471521693
aF0.021954846453611596
aF0.03086145007436522
aF0.009795214631857934
aF0.010574991461000424
aF0.054109487516313726
aF0.009857343835345726
aF0.009797914991201102
aF0.00898208303752484
aF0.020504981174328942
aF0.0499494468768436
aF0.009738479135832954
aF0.008943758314679974
aF0.047450394341021405
aF0.028856849439196725
aF0.009041341567120503
aF0.008966498411258557
aF0.008357128675141124
aF0.032198570209398834
aF0.022788037065454486
aF0.010710709550335653
aF0.009714978539623716
aF0.05529882667987385
aF0.05134124303906522
aF0.009779810178904915
aF0.009669765711742825
aF0.009120503018166394
aF0.009688313247215401
aF0.012224052662239693
aF0.012203325687948333
aF0.012202863172360686
aF0.03800743540406894
aF0.06644978256040618
aF0.013079162219064714
aF0.026868610384198452
aF0.0674411302163479
aF0.011345584351556883
aF0.012301351543702804
aF0.07012441861485315
aF0.012905189779678528
aF0.0769103137574521
aF0.012943603135234159
aF0.012306869182827716
aF0.031784593447365055
aF0.045211502694600086
aF0.012906825794165317
aF0.01311519322862703
aF0.014581720810645305
aF0.036672138811877426
aF0.018006998345364646
aF0.016877747683540924
aF0.015674212389419684
aF0.09299169415008028
aF0.0169032750790367
aF0.0168777077251708
aF0.09334083820040218
aF0.017043475190332107
aF0.05212404935303912
aF0.02245772488922082
aF0.0847193753634829
aF0.14291932940257415
aF0.02224838148803663
aF0.021737256990732798
aF0.12894094110283283
aF0.05910434867111496
aF0.022247903834808243
aF0.022834944309366983
aF0.02619756769969128
aF0.025328436085892827
aF0.02531517890623486
aF0.025501301607697032
aF0.1413147219273922
aF0.026897064930486582
aF0.0776885933699033
aF0.023410106086262896
aF0.05417378526773882
aF0.025268056415919667
aF0.1399594327329097
aF0.3840693604725164
aF0.34453976376992235
aF0.05483788783544037
aF0.22664550870902414
aF0.06549305677965284
aF0.05234474610264442
aF0.15702809626830375
aF0.05222309495500881
aF0.05309950358636534
aF0.05342772113369412
aF0.12299500730014937
aF0.040235358086272946
aF0.22705346649997732
aF0.08520239286685803
aF0.04020107010740003
aF0.04044268158004568
aF0.0402255465205462
aF0.042651584909555805
aF0.22340258499034593
aF0.03710821989446405
aF0.06672304366602039
aF0.0706520502890617
aF0.38121224233410345
aF0.14032102658748752
aF0.0633602636168856
aF0.06723904486960403
aF0.06689126722129805
aF0.20441371696688157
aF0.06690018479581454
aF0.37191196554267153
aF0.2047692147957927
aF0.19901596180838466
aF0.9809549231956263
aF1.5393064454181276
aF1.6990712544381377
aF0.677664063408055
aF0.18753985122612962
aF0.25801141642235303
aF0.18139234805993532
aF0.18112305996730008
aF0.9308700033185886
aF0.9253298791129958
aF1.1117194332008162
aF12.05314644356699
aF5.0737214179996535
aF7.207480497342713
aF13.134302705757841
aF1.696363195086934
aF0.9938207507753555
aF1.1492147767114163
aF0.658447315975657
aF0.12126624177353296
aF0.23882865565472433
aF0.3506664181707845
aF0.11492180922282642
aF0.1059660325098239
aF0.11582132222326398
aF0.11490436489561347
aF0.11477522070646262
aF0.6410897924925876
aF1.1688407544569992
aF1.1320417112262136
aF0.20262150179049826
aF0.2026370553961834
aF0.21402842286435034
aF0.20258573367992186
aF0.6184414547236043
aF0.18663727963850185
aF0.20408381239591394
aF0.4193628031110485
aF224.50970149794261
aF8.939342024973755
aF85.18724135655827
aF11.015950970921587
aF5.7646272810937695
aF6.843405018270042
aF209.79244310501355
aF112.92895506906957
aF23.495745106736578
aF5.531363885375555
aF1.1073218942937273
aF0.3655915084225774
aF0.363745741069998
aF2.035180618196476
aF0.3628886359077794
aF0.38309880454542344
aF0.3639913290218945
aF2.1064377735927646
aF0.3359443310393321
aF0.7496693717048222
aF9250.30962845909
aF9502.386713872176
aF72.09019449497518
aF61.15040331673869
aF36.5933421572896
aF22.307385671620274
aF4281.102143083302
aF721.9821020153778
aF3657.237905736398
aF46.18599258760431
aF28825.968567007494
aF454.79523337507345
aF1171478.3504016355
aF564673.2372926516
aF1519008.8694287692
aF310.8370476609769
aF431.55134508021627
aF129.85608148311613
aF600846.5267423146
aF376.73560220862043
aF0.6616435663269926
aF0.6258119784524221
aF0.6601638848595485
aF0.6600165819254834
aF3.843950536246411
aF1.3563941089481637
aF3.7155082587696455
aF0.665000292129185
aF0.6967263298706415
aF2.0167195862146214
aF4478.480805154733
aF5154.163986261401
aF474567607.9798924
aF4955.236953436765
aF1537718881.3346422
aF485498175.47801304
aF5218.913866026284
aF503752093.71536416
aF2683470.9386212523
aF1631.7788522304468
aF1.2162841475330513
aF3.706268166495237
aF2.4905841798499404
aF1.2835458418564683
aF1.1216535349033614
aF1.2225901720745633
aF1.2156332109215464
aF1.215272960136001
aF6.819996043484
aF7.064221816854453
aF39476606496269.234
aF260351.97401939693
aF5080057818227.307
aF82822.16868150918
aF2112115343.5803816
aF257381.22020631816
aF248162.06179033365
aF1880646482181.112
aF259944.37871261343
aF7139760691052.802
aF12.631315057731511
aF2.246481007743719
aF2.0730355446298288
aF2.2464612020082924
aF2.2474869433789193
aF2.2639101417895575
aF2.372800537595012
aF4.600783397215301
aF13.10411404788745
aF6.857300810693124
aF19093882.19693022
aF19621366097725.543
aF60107810.88672994
aF60106473.75739494
aF5.980470717152027e+17
aF9.217065473902441e+17
aF1.208195687585928e+18
aF60000694.14318321
aF3.216464072095635e+19
aF59530880.21800495
aF4.221131013222459
aF8.549211332511772
aF4.186878946916738
aF4.186841992496555
aF3.8549090415393765
aF4.407449062676223
aF24.45027765300908
aF12.762662008475287
aF23.550873596955814
aF4.188752286624093
aF9.482387090616091e+24
aF2.1533673347698917e+23
aF32608203168.395947
aF4.631709086207722e+18
aF5.919939220223386e+24
aF102591985040.7623
aF102258175829.7672
aF102603505351.32513
aF2.638773484589748e+27
aF102603182805.549
aF44.00478228597693
aF7.816353046640254
aF7.816324736163455
aF7.819794933574287
aF7.2174147937688815
aF8.24364243402637
aF23.82149221705025
aF45.69644637497413
aF7.87672345758747
aF15.959035409639174
aF5.267493470857628e+35
aF8.777401691042274e+26
aF3437963850665608.5
aF3.258909836959884e+35
aF3.5887236217932245e+39
aF1.0796330280471028e+16
aF1.079627236129151e+16
aF1.0796440034493226e+16
aF6.2336406296566606e+35
aF1.0796327213359036e+16
aF44.579820707826585
aF82.35619552260367
aF14.75435649769818
aF15.448653695107716
aF13.513065239187386
aF14.641129891734415
aF14.641182813964129
aF85.66931089567132
aF14.647598330685765
aF29.867332514372027
asg9
(lp44
F0.006311631202697754
aF0.006820178031921387
aF0.0062478637695312506
aF0.0058894407749176024
aF0.006258368492126465
aF0.019472837448120117
aF0.02521204948425293
aF0.006258368492126465
aF0.01426752805709839
aF0.03477569818496704
aF0.006664721965789795
aF0.026999980211257935
aF0.006265934705734253
aF0.015071332454681396
aF0.02058861255645752
aF0.0066844701766967775
aF0.007247757911682129
aF0.036907541751861575
aF0.006737732887268067
aF0.006664721965789795
aF0.0060985803604125975
aF0.014066576957702637
aF0.0341094970703125
aF0.006648898124694824
aF0.006077014207839966
aF0.024476617574691772
aF0.019148290157318115
aF0.006133668422698975
aF0.006077014207839966
aF0.005733804702758789
aF0.021339476108551025
aF0.01560720205307007
aF0.0072747802734375
aF0.006557865142822266
aF0.037568664550781256
aF0.026495307683944702
aF0.006597099304199219
aF0.006534509658813477
aF0.0062428808212280276
aF0.006534509658813477
aF0.008346061706542968
aF0.008346061706542968
aF0.008346061706542968
aF0.025409996509552002
aF0.03394889831542969
aF0.008975815773010255
aF0.018522143363952637
aF0.04596787691116333
aF0.007798802852630615
aF0.008399391174316406
aF0.035945892333984375
aF0.008632957935333252
aF0.051979243755340576
aF0.008685278892517091
aF0.008377611637115479
aF0.021797823905944827
aF0.029838091135025026
aF0.008632957935333252
aF0.008821563720703125
aF0.009886637330055237
aF0.025118887424468994
aF0.01239258348941803
aF0.011586112976074219
aF0.010790584981441498
aF0.047678232192993164
aF0.01153249740600586
aF0.011586112976074219
aF0.06356346607208252
aF0.011632490158081056
aF0.03492264747619629
aF0.014879822731018066
aF0.055430841445922856
aF0.09652441740036011
aF0.014750432968139649
aF0.014771881699562074
aF0.06590080261230469
aF0.04037178754806519
aF0.014750432968139649
aF0.015193694829940797
aF0.017632150650024415
aF0.017327165603637697
aF0.017327165603637697
aF0.017460966110229494
aF0.07239103317260742
aF0.01848854124546051
aF0.052056980133056645
aF0.016127341985702516
aF0.03710896968841553
aF0.017327165603637697
aF0.09541168808937073
aF0.2560545802116394
aF0.17673397064208984
aF0.035861968994140625
aF0.14580535888671875
aF0.04361915588378906
aF0.03397040367126465
aF0.10653305053710938
aF0.03397040367126465
aF0.034477424621582035
aF0.03616485595703125
aF0.08240175247192383
aF0.02750396728515625
aF0.1164548397064209
aF0.05840978622436524
aF0.02756290435791016
aF0.027795410156250002
aF0.02756290435791016
aF0.02931274175643921
aF0.15225976705551147
aF0.025641798973083496
aF0.045922851562500006
aF0.048675286769866946
aF0.19470691680908203
aF0.09612160921096802
aF0.04264636039733887
aF0.046062469482421875
aF0.045922851562500006
aF0.13668227195739746
aF0.045922851562500006
aF0.2547537088394165
aF0.13821452856063843
aF0.12742996215820312
aF0.6188071966171265
aF0.7868156433105469
aF1.1169981956481934
aF0.45725560188293457
aF0.11863517761230469
aF0.17050951719284058
aF0.11468067169189454
aF0.1151397705078125
aF0.5930690765380859
aF0.5840377807617188
aF0.6970157623291016
aF6.1507415771484375
aF3.3960580825805664
aF4.32798957824707
aF8.410205841064453
aF1.108616828918457
aF0.623387336730957
aF0.8382668495178223
aF0.3374919891357422
aF0.08370266854763031
aF0.16396038234233856
aF0.23477959632873535
aF0.07895507812500001
aF0.07314660549163819
aF0.0794921875
aF0.07895507812500001
aF0.07895507812500001
aF0.4386310577392578
aF0.5971012115478516
aF0.7756280899047852
aF0.13897705078125
aF0.13897705078125
aF0.1477777361869812
aF0.13897705078125
aF0.4133167266845703
aF0.12922117114067078
aF0.14031982421875
aF0.2869662642478943
aF133.2916259765625
aF6.21681022644043
aF56.00433349609375
aF7.240234375
aF4.763045310974121
aF5.406412124633789
aF107.03887939453125
aF63.11511993408203
aF15.49384593963623
aF4.255967140197754
aF0.740147590637207
aF0.25177001953125
aF0.249755859375
aF1.3882899284362793
aF0.249755859375
aF0.2651901841163635
aF0.249755859375
aF1.0783767700195312
aF0.23212575912475586
aF0.5125350952148438
aF4732.875823974609
aF5435.943603515625
aF61.619768142700195
aF52.28343963623047
aF31.309188842773438
aF17.255582809448242
aF2371.6201782226562
aF522.9892730712891
aF2369.2874908447266
aF39.43034362792969
aF23056.869506835938
aF379.0185546875
aF741739.6545410156
aF361076.16424560547
aF774833.6791992188
aF260.0525665283203
aF361.23504638671875
aF98.5076904296875
aF332373.046875
aF317.1394348144531
aF0.4552001953125
aF0.4210653305053711
aF0.453857421875
aF0.453857421875
aF1.9650421142578125
aF0.9289698600769043
aF2.535501480102539
aF0.4578857421875
aF0.48179590702056885
aF1.3498191833496094
aF3590.8706665039062
aF4151.010513305664
aF272927856.4453125
aF3972.0245361328125
aF786815643.3105469
aF371503829.9560547
aF4200.896263122559
aF319742202.75878906
aF2136520.8625793457
aF1228.2967567443848
aF0.835205078125
aF2.479900360107422
aF1.7031114101409912
aF0.8853168487548828
aF0.7746522426605225
aF0.840576171875
aF0.835205078125
aF0.835205078125
aF4.659547805786133
aF3.6145591735839844
aF20239048004150.39
aF209012.75634765625
aF3761482238769.5312
aF62296.390533447266
aF1627252960.2050781
aF207277.7557373047
aF199731.2355041504
aF2835205078125.0
aF209290.1611328125
aF5714866638183.594
aF8.616971969604492
aF1.546875
aF1.435786485671997
aF1.546875
aF1.546875
aF1.5576171875
aF1.6410751342773438
aF3.1480393409729004
aF6.70989990234375
aF4.583106994628906
aF14398694.038391113
aF15161941528320.312
aF48282146.45385742
aF48282146.45385742
aF4.6110076904296877e+17
aF7.331562042236328e+17
aF9.457099914550781e+17
aF48282146.45385742
aF1.6455230712890624e+19
aF47780513.763427734
aF2.900390625
aF5.862630844116211
aF2.87890625
aF2.87890625
aF2.6667470932006836
aF3.044626235961914
aF12.596626281738281
aF8.52792739868164
aF16.100969314575195
aF2.87890625
aF7.642501831054687e+24
aF9.159818649291992e+24
aF24565935134.887695
aF3.5731964111328123e+18
aF4.5605015754699706e+24
aF82388191223.14453
aF82257070541.38184
aF82388191223.14453
aF1.3499679565429688e+27
aF82388191223.14453
aF30.062274932861328
aF5.37109375
aF5.37109375
aF5.359888076782227
aF4.988004684448242
aF5.7005767822265625
aF15.897536277770996
aF23.364830017089844
aF5.4140625
aF10.89137077331543
aF4.26908016204834e+35
aF6.762537956237794e+26
aF2585887908935547.0
aF2.5241622924804685e+35
aF1.8372344970703124e+39
aF8678245544433594.0
aF8678245544433594.0
aF8678245544433594.0
aF5.074691772460937e+35
aF8678245544433594.0
aF29.82158660888672
aF56.169891357421875
aF10.140625
aF10.661590099334717
aF9.328216552734375
aF10.09039306640625
aF10.09039306640625
aF43.734169006347656
aF10.09039306640625
aF20.394625663757324
asg11
(lp45
F0.014350293874740601
aF0.015559303760528565
aF0.014252997636795044
aF0.013396794795989991
aF0.014265785217285156
aF0.046580109000205996
aF0.09728126972913742
aF0.014265785217285156
aF0.03249148726463318
aF0.08003341555595399
aF0.015158908367156982
aF0.10430988669395447
aF0.01425321102142334
aF0.034234410524368285
aF0.04906437993049622
aF0.015158908367156982
aF0.016516597270965577
aF0.08493967652320862
aF0.015279695987701417
aF0.015158908367156982
aF0.013901551961898804
aF0.031952115893363955
aF0.07850020527839661
aF0.015254218578338623
aF0.013901551961898804
aF0.09456130117177963
aF0.046033436059951784
aF0.014022963047027588
aF0.013901551961898804
aF0.013090932369232177
aF0.05149503350257874
aF0.03563302755355835
aF0.01680395007133484
aF0.015093570947647095
aF0.08677952289581299
aF0.10236016660928726
aF0.015237072706222534
aF0.015054955482482911
aF0.014289491176605225
aF0.015054955482482911
aF0.018903340101242064
aF0.018903340101242064
aF0.018903340101242064
aF0.0604023277759552
aF0.13152199983596802
aF0.02044065296649933
aF0.04194910228252411
aF0.1055227041244507
aF0.017694894075393677
aF0.0190241277217865
aF0.13925857841968536
aF0.02013556957244873
aF0.1208160400390625
aF0.020205910205841063
aF0.01931841015815735
aF0.0498556524515152
aF0.07209304571151734
aF0.02013556957244873
aF0.020449354648590087
aF0.02297964096069336
aF0.057203322649002075
aF0.028144034743309024
aF0.02609023332595825
aF0.02448302209377289
aF0.1847110390663147
aF0.026120430231094362
aF0.02609023332595825
aF0.1462024688720703
aF0.02627898156642914
aF0.08291259407997131
aF0.035174235701560974
aF0.13612329959869385
aF0.22575537860393524
aF0.03495712280273438
aF0.03419052064418793
aF0.25633504986763
aF0.09267646074295044
aF0.03495712280273438
aF0.03578596115112305
aF0.04129859507083893
aF0.0390043318271637
aF0.0390043318271637
aF0.0393055260181427
aF0.28045132756233215
aF0.04194910228252411
aF0.1235925555229187
aF0.03655061721801758
aF0.08450837135314943
aF0.039105153083801275
aF0.21889804303646088
aF0.6071398258209229
aF0.6846880316734314
aF0.08629557490348816
aF0.36563801765441895
aF0.10407785177230836
aF0.08280583620071412
aF0.24670451879501343
aF0.08280583620071412
aF0.08382998704910279
aF0.08423306941986085
aF0.19563645124435425
aF0.062045502662658694
aF0.4505282938480377
aF0.13301678895950317
aF0.06188512444496155
aF0.06250784993171692
aF0.06188512444496155
aF0.06633867621421814
aF0.3493216037750244
aF0.05796603560447693
aF0.10300757884979249
aF0.1101587176322937
aF0.7543173432350159
aF0.21889804303646088
aF0.09640666246414185
aF0.10364257097244263
aF0.10300757884979249
aF0.32450807094573975
aF0.10300757884979249
aF0.5826688408851624
aF0.32288095355033875
aF0.3183329105377197
aF1.6135956048965454
aF3.048215627670288
aF2.7089507579803467
aF1.069448709487915
aF0.29960744380950927
aF0.4135206937789917
aF0.2925104141235352
aF0.2925104141235352
aF1.4024832248687744
aF1.508833408355713
aF1.8080536127090454
aF23.92460584640503
aF8.053643226623535
aF12.110371589660645
aF21.286423206329346
aF2.7089507579803467
aF1.6328816413879395
aF1.6382536888122559
aF1.307483434677124
aF0.18894577026367188
aF0.37372836470603943
aF0.5574086308479309
aF0.1771007537841797
aF0.1653557300567627
aF0.17830551862716676
aF0.1771007537841797
aF0.1771007537841797
aF1.003230333328247
aF2.313239812850952
aF1.7740048170089722
aF0.3117334842681885
aF0.3117334842681885
aF0.33236244320869446
aF0.3117334842681885
aF0.9812875986099243
aF0.2913728654384613
aF0.31393182277679443
aF0.6559314131736755
aF377.46613025665283
aF11.823145866394043
aF135.82204818725586
aF14.902336120605469
aF7.259456634521484
aF8.780592918395996
aF414.6811008453369
aF196.58818244934082
aF37.57576942443848
aF7.757883071899414
aF1.759411334991455
aF0.5632748007774353
aF0.558768630027771
aF3.1850810050964355
aF0.558768630027771
aF0.5964311957359314
aF0.5602166652679443
aF4.177757740020752
aF0.5234060883522034
aF1.1715240478515625
aF18114.300966262817
aF16088.92822265625
aF89.16430473327637
aF75.6545639038086
aF45.238338470458984
aF31.161000728607178
aF7967.343330383301
aF1006.7399978637695
aF5900.641441345215
aF56.97251892089844
aF38595.48807144165
aF572.8872299194336
aF1671888.3514404297
aF917343.4257507324
aF2965548.038482666
aF390.65196990966797
aF542.9837799072266
aF184.40948486328125
aF1130940.9141540527
aF470.7341766357422
aF1.0184009075164795
aF0.9518632888793945
aF1.0180281400680542
aF1.0180281400680542
aF7.612802505493164
aF2.123387336730957
aF5.8139214515686035
aF1.0270639657974243
aF1.0835925340652466
aF3.204711437225342
aF5812.815475463867
aF6718.023777008057
aF766579055.7861328
aF6429.8187255859375
aF3023676633.834839
aF712756586.0748291
aF6778.91206741333
aF814490222.9309082
aF3608964.9200439453
aF2316.2009716033936
aF1.868570327758789
aF5.887725830078125
aF3.892876625061035
aF1.99113929271698
aF1.7467156648635864
aF1.885460376739502
aF1.868570327758789
aF1.868570327758789
aF10.690156936645508
aF14.00322437286377
aF78298707008361.81
aF338310.16540527344
aF6940354347229.004
aF117472.39112854004
aF2903832244.873047
aF334480.4382324219
aF322302.7801513672
aF5105402469635.01
aF337727.8518676758
aF9181533813476.562
aF19.769468307495117
aF3.4607605934143066
aF3.2338943481445312
aF3.4607605934143066
aF3.4607605934143066
aF3.4847936630249023
aF3.690892457962036
aF7.19389533996582
aF25.994935035705566
aF10.881113052368164
aF27151637.077331543
aF27056478500366.21
aF78140153.8848877
aF78140153.8848877
aF8.202795028686523e+17
aF1.2195202827453614e+18
aF1.570921516418457e+18
aF78140153.8848877
aF6.374948501586914e+19
aF77328310.01281738
aF6.488925933837891
aF13.360092163085938
aF6.440859794616699
aF6.440859794616699
aF6.0130839347839355
aF6.865139961242676
aF48.47063064575195
aF20.2468204498291
aF36.82589292526245
aF6.440859794616699
aF1.2374948501586913e+25
aF1.465381622314453e+25
aF46324019432.06787
aF6.376367568969727e+18
aF8.117125511169434e+24
aF133142700195.3125
aF132736778259.27734
aF133142700195.3125
aF5.229933738708496e+27
aF133142700195.3125
aF68.75798225402832
aF12.016529083251953
aF12.016529083251953
aF12.016529083251953
aF11.24714469909668
aF12.82099437713623
aF37.79017448425293
aF90.5180811882019
aF12.112661361694336
aF24.958412647247314
aF6.881778717041015e+35
aF1.2036477088928223e+27
aF4876212120056152.0
aF4.476198673248291e+35
aF7.117660999298096e+39
aF1.4044931411743164e+16
aF1.4044931411743164e+16
aF1.4044931411743164e+16
aF8.068632125854492e+35
aF1.4044931411743164e+16
aF70.8017635345459
aF128.86764526367188
aF22.68720817565918
aF23.978660106658936
aF21.087432861328125
aF22.553239822387695
aF22.553239822387695
aF170.11326551437378
aF22.553239822387695
aF46.61689281463623
asg13
(lp46
F0.0092578125
aF0.009960937500000001
aF0.00921875
aF0.0085546875
aF0.0091796875
aF0.029296875
aF0.04931640625
aF0.0091796875
aF0.02080078125
aF0.0509765625
aF0.009804687500000001
aF0.05224609375
aF0.0091015625
aF0.02197265625
aF0.030859375
aF0.009804687500000001
aF0.010546875
aF0.054101562500000006
aF0.009882812500000001
aF0.009804687500000001
aF0.0089453125
aF0.0205078125
aF0.049999999999999996
aF0.009765625
aF0.0089453125
aF0.04736328125
aF0.02880859375
aF0.0090234375
aF0.0089453125
aF0.008359375
aF0.0322265625
aF0.02275390625
aF0.010703125
aF0.0096875
aF0.0552734375
aF0.05126953125
aF0.009804687500000001
aF0.0096875
aF0.0091015625
aF0.0096875
aF0.0122265625
aF0.0122265625
aF0.0122265625
aF0.0380859375
aF0.06640625
aF0.0130859375
aF0.02685546875
aF0.0673828125
aF0.011328125
aF0.0123046875
aF0.0703125
aF0.012890625000000001
aF0.07675781250000001
aF0.012968750000000001
aF0.0123046875
aF0.0318359375
aF0.0451171875
aF0.012890625000000001
aF0.013125
aF0.014599609375000001
aF0.03662109375
aF0.018017578125
aF0.016875
aF0.015673828125
aF0.09326171875
aF0.01689453125
aF0.016875
aF0.09335937500000001
aF0.017041015625
aF0.052148437500000006
aF0.0224609375
aF0.08476562500000001
aF0.14306640625
aF0.022265625
aF0.02177734375
aF0.12890625
aF0.0591796875
aF0.022265625
aF0.022851562500000002
aF0.026171875
aF0.025292968750000002
aF0.025292968750000002
aF0.02548828125
aF0.1416015625
aF0.02685546875
aF0.07773437500000001
aF0.023339843750000002
aF0.054101562500000006
aF0.025292968750000002
aF0.14013671875
aF0.3837890625
aF0.345703125
aF0.0546875
aF0.2265625
aF0.065625
aF0.05234375
aF0.15673828125
aF0.05234375
aF0.053125000000000006
aF0.053515625000000004
aF0.123046875
aF0.040234375
aF0.2265625
aF0.08515625
aF0.040234375
aF0.040429687500000006
aF0.040234375
aF0.042578125
aF0.2236328125
aF0.037109375
aF0.066796875
aF0.070703125
aF0.380859375
aF0.14013671875
aF0.06171875
aF0.0673828125
aF0.066796875
aF0.2041015625
aF0.066796875
aF0.3720703125
aF0.2041015625
aF0.19921875
aF0.98046875
aF1.5390625
aF1.6953125
aF0.677734375
aF0.1875
aF0.2587890625
aF0.18125000000000002
aF0.18125000000000002
aF0.93359375
aF0.92578125
aF1.109375
aF12.03125
aF5.078125
aF7.21875
aF13.125
aF1.6953125
aF0.9921875
aF1.1484375
aF0.66015625
aF0.12158203125
aF0.2392578125
aF0.3505859375
aF0.11484375000000001
aF0.105859375
aF0.115625
aF0.11484375000000001
aF0.11484375000000001
aF0.640625
aF1.16796875
aF1.1328125
aF0.2021484375
aF0.2021484375
aF0.2138671875
aF0.2021484375
aF0.6171875
aF0.18701171875
aF0.2041015625
aF0.419921875
aF225.0
aF8.9375
aF85.0
aF11.0
aF5.765625
aF6.84375
aF209.375
aF112.890625
aF23.515625
aF5.546875
aF1.109375
aF0.3662109375
aF0.36328125
aF2.0390625
aF0.36328125
aF0.3837890625
aF0.36328125
aF2.109375
aF0.3359375
aF0.75
aF9257.8125
aF9500.0
aF72.1875
aF61.25
aF36.625
aF22.34375
aF4281.25
aF721.875
aF3656.25
aF46.125
aF28828.125
aF455.0
aF1168750.0
aF565625.0
aF1515625.0
aF311.25
aF431.25
aF130.0
aF600000.0
aF376.25
aF0.662109375
aF0.609375
aF0.66015625
aF0.66015625
aF3.84375
aF1.359375
aF3.703125
aF0.666015625
aF0.697265625
aF2.015625
aF4475.0
aF5171.875
aF475000000.0
aF4950.0
aF1539062500.0
aF496875000.0
aF5218.75
aF504687500.0
aF2679687.5
aF1632.8125
aF1.21484375
aF3.703125
aF2.4921875
aF1.28125
aF1.12109375
aF1.22265625
aF1.21484375
aF1.21484375
aF6.84375
aF7.0703125
aF39375000000000.0
aF261250.0
aF5078125000000.0
aF82812.5
aF2106250000.0
aF257500.0
aF248125.0
aF3703125000000.0
aF260000.0
aF7156250000000.0
aF12.65625
aF2.25
aF2.0703125
aF2.25
aF2.25
aF2.265625
aF2.375
aF4.59375
aF13.125
aF6.84375
aF19140625.0
aF19625000000000.0
aF60156250.0
aF60156250.0
aF5.984375e+17
aF9.21875e+17
aF1.209375e+18
aF60156250.0
aF3.21875e+19
aF59531250.0
aF4.21875
aF8.53125
aF4.1875
aF4.1875
aF3.859375
aF4.40625
aF24.375
aF12.734375
aF23.515625
aF4.1875
aF9.46875e+24
aF1.1281249999999999e+25
aF32656250000.0
aF4.625e+18
aF5.921875e+24
aF102500000000.0
aF102187500000.0
aF102500000000.0
aF2.640625e+27
aF102500000000.0
aF43.90625
aF7.8125
aF7.8125
aF7.8125
aF7.21875
aF8.25
aF23.828125
aF45.703125
aF7.875
aF15.9375
aF5.265625e+35
aF8.78125e+26
aF3437500000000000.0
aF3.2656249999999998e+35
aF3.59375e+39
aF1.08125e+16
aF1.08125e+16
aF1.08125e+16
aF6.25e+35
aF1.08125e+16
aF44.53125
aF82.5
aF14.75
aF15.4296875
aF13.5
aF14.625
aF14.625
aF85.546875
aF14.625
aF29.84375
asg15
(lp47
F0.0044842529296875
aF0.00505828857421875
aF0.00446533203125
aF0.004444427490234375
aF0.0044464111328125005
aF0.0139617919921875
aF0.014255523681640625
aF0.0044464111328125005
aF0.010725402832031251
aF0.025687408447265626
aF0.0047491455078125
aF0.015102386474609375
aF0.004728546142578125
aF0.01132965087890625
aF0.01482696533203125
aF0.0047491455078125
aF0.00539703369140625
aF0.027262115478515626
aF0.0047869873046875
aF0.0047491455078125
aF0.0043328857421875
aF0.0105743408203125
aF0.0251953125
aF0.0049591064453125
aF0.004297943115234375
aF0.013690948486328125
aF0.013729095458984375
aF0.0043707275390625
aF0.004297943115234375
aF0.004310302734375
aF0.015232086181640625
aF0.011732482910156251
aF0.0053515625
aF0.00461669921875
aF0.02763671875
aF0.014820098876953125
aF0.00467254638671875
aF0.004578857421875
aF0.0046929931640625
aF0.004578857421875
aF0.00601776123046875
aF0.00601776123046875
aF0.00601776123046875
aF0.018299102783203125
aF0.019195556640625
aF0.006747436523437501
aF0.01384735107421875
aF0.033954620361328125
aF0.00588531494140625
aF0.0060562133789062505
aF0.02032470703125
aF0.00599212646484375
aF0.03807907104492188
aF0.0060284423828125
aF0.00624847412109375
aF0.01616668701171875
aF0.020972442626953126
aF0.00599212646484375
aF0.00615234375
aF0.007242774963378907
aF0.01888275146484375
aF0.009290313720703125
aF0.0083056640625
aF0.008143043518066407
aF0.026958465576171875
aF0.008315277099609376
aF0.0083056640625
aF0.0474090576171875
aF0.008387374877929689
aF0.0252593994140625
aF0.0101776123046875
aF0.038409423828125004
aF0.07041549682617188
aF0.010089111328125
aF0.010973739624023439
aF0.037261962890625
aF0.029821014404296877
aF0.010089111328125
aF0.010443878173828126
aF0.012677001953125001
aF0.012547683715820313
aF0.012547683715820313
aF0.012644577026367189
aF0.04093170166015625
aF0.013952255249023438
aF0.037652587890625006
aF0.012216949462890626
aF0.0278961181640625
aF0.012547683715820313
aF0.07116317749023438
aF0.18439865112304688
aF0.0999298095703125
aF0.024566650390625
aF0.09735107421875
aF0.0312744140625
aF0.023309326171875002
aF0.078369140625
aF0.023309326171875002
aF0.0236572265625
aF0.026757812500000002
aF0.059600830078125
aF0.0201171875
aF0.06549072265625
aF0.043908691406250006
aF0.019960021972656252
aF0.020214843750000003
aF0.019960021972656252
aF0.02212066650390625
aF0.11356353759765625
aF0.0194244384765625
aF0.0333984375
aF0.03673248291015625
aF0.1100921630859375
aF0.07225799560546875
aF0.032305908203125004
aF0.03369140625
aF0.0333984375
aF0.0988616943359375
aF0.0333984375
aF0.18894195556640625
aF0.10125350952148438
aF0.087158203125
aF0.3944854736328125
aF0.44488525390625
aF0.78143310546875
aF0.3335723876953125
aF0.081298828125
aF0.11928558349609375
aF0.07858886718750001
aF0.079296875
aF0.408447265625
aF0.405029296875
aF0.48101806640625
aF3.477783203125
aF2.4200439453125
aF2.650634765625
aF5.48583984375
aF0.7681884765625
aF0.430206298828125
aF0.61907958984375
aF0.190826416015625
aF0.06316566467285156
aF0.12243270874023438
aF0.1698150634765625
aF0.057421875000000004
aF0.0554107666015625
aF0.0578125
aF0.057421875000000004
aF0.057421875000000004
aF0.3253173828125
aF0.337615966796875
aF0.57525634765625
aF0.10107421875
aF0.10107421875
aF0.11194610595703125
aF0.10107421875
aF0.2989501953125
aF0.09788894653320312
aF0.10205078125
aF0.21488189697265625
aF85.25390625
aF4.294189453125
aF39.1796875
aF4.984375
aF4.03143310546875
aF3.8763427734375
aF60.5224609375
aF38.80615234375
aF10.8392333984375
aF3.53179931640625
aF0.53302001953125
aF0.18310546875
aF0.181640625
aF1.03546142578125
aF0.181640625
aF0.20088958740234375
aF0.181640625
aF0.6097412109375
aF0.17584228515625
aF0.3837890625
aF2676.08642578125
aF3451.171875
aF55.6915283203125
aF47.25341796875
aF28.3271484375
aF14.4012451171875
aF1471.6796875
aF377.8564453125
aF1571.044921875
aF35.6748046875
aF19819.3359375
aF327.03125
aF502197.265625
aF234204.1015625
aF438110.3515625
aF226.142578125
aF313.330078125
aF80.234375
aF206250.0
aF279.248046875
aF0.3310546875
aF0.3189697265625
aF0.330078125
aF0.330078125
aF1.111083984375
aF0.69561767578125
aF1.8804931640625
aF0.3330078125
aF0.3649749755859375
aF0.976318359375
aF3024.12109375
aF3474.853515625
aF170703125.0
aF3345.1171875
aF444885253.90625
aF291137695.3125
aF3526.7333984375
aF205029296.875
aF1821350.09765625
aF1001.373291015625
aF0.607421875
aF1.793701171875
aF1.275299072265625
aF0.670654296875
aF0.586822509765625
aF0.611328125
aF0.607421875
aF0.607421875
aF3.475341796875
aF2.04376220703125
aF11381835937500.0
aF175527.34375
aF2737426757812.5
aF50787.353515625
aF1349316406.25
aF174013.671875
aF167678.22265625
aF2314453125000.0
aF175703.125
aF4081298828125.0
aF6.427001953125
aF1.125
aF1.091766357421875
aF1.125
aF1.125
aF1.1328125
aF1.2431640625
aF2.3507080078125
aF3.7939453125
aF3.31494140625
aF11738586.42578125
aF12572265625000.0
aF40417480.46875
aF40417480.46875
aF3.7869873046875e+17
aF6.121826171875e+17
aF7.653076171875e+17
aF40417480.46875
aF9.30419921875e+18
aF39997558.59375
aF2.109375
aF4.3656005859375
aF2.09375
aF2.09375
aF2.0201416015625
aF2.306396484375
aF7.0458984375
aF6.168212890625
aF11.9415283203125
aF2.09375
aF6.509765625e+24
aF7.7999267578125e+24
aF20027465820.3125
aF2.962890625e+18
aF3.77056884765625e+24
aF69067382812.5
aF69056396484.375
aF69067382812.5
aF7.633056640625e+26
aF69067382812.5
aF22.296142578125
aF3.90625
aF3.90625
aF3.936767578125
aF3.778564453125
aF4.318359375
aF11.44866943359375
aF13.2110595703125
aF3.9375
aF8.155517578125
aF3.650970458984375e+35
aF5.5911865234375005e+26
aF2108154296875000.0
aF2.07928466796875e+35
aF1.038818359375e+39
aF7264648437500000.0
aF7264648437500000.0
aF7264648437500000.0
aF4.345703125e+35
aF7264648437500000.0
aF21.56982421875
aF41.89453125
aF7.375
aF8.07647705078125
aF7.06640625
aF7.36962890625
aF7.36962890625
aF24.7283935546875
aF7.36962890625
aF15.2716064453125
asg17
(lp48
F0.022221384048461915
aF0.024420590400695802
aF0.022111833095550537
aF0.02098656415939331
aF0.02204958438873291
aF0.07347933053970337
aF0.14955240488052368
aF0.02204958438873291
aF0.05099593997001648
aF0.12513788938522338
aF0.02351724624633789
aF0.15844646096229553
aF0.022328171730041504
aF0.05357951521873475
aF0.07774802446365357
aF0.02351724624633789
aF0.025873847007751465
aF0.13280917406082154
aF0.023704633712768555
aF0.02351724624633789
aF0.021486616134643557
aF0.05024511814117432
aF0.12274061441421509
aF0.023941755294799805
aF0.021486616134643557
aF0.14363838732242584
aF0.07298852205276489
aF0.02167427062988281
aF0.021486616134643557
aF0.020603737831115722
aF0.08164817690849305
aF0.05582042932510376
aF0.026397151947021486
aF0.023398163318634035
aF0.13632105588912966
aF0.1554848551750183
aF0.02355083227157593
aF0.02326934814453125
aF0.022551798820495607
aF0.02326934814453125
aF0.02932628631591797
aF0.02932628631591797
aF0.02932628631591797
aF0.09546738266944886
aF0.2013816237449646
aF0.032081952691078185
aF0.06583982706069946
aF0.16530513763427734
aF0.027772436141967775
aF0.029513673782348634
aF0.21322761476039886
aF0.03130526065826416
aF0.19030718803405763
aF0.03147358417510986
aF0.030488483905792237
aF0.07810068726539612
aF0.11481605768203736
aF0.03130526065826416
aF0.03185278415679932
aF0.036197105050086976
aF0.08978158831596375
aF0.04417254030704498
aF0.040475897789001465
aF0.03842651844024658
aF0.28282272815704346
aF0.04052274227142334
aF0.040475897789001465
aF0.22903146743774416
aF0.04064537584781647
aF0.13138432502746583
aF0.054842913150787355
aF0.2168975830078125
aF0.3549257218837738
aF0.05465793013572693
aF0.053959774971008304
aF0.3909253180027008
aF0.1451810359954834
aF0.05465793013572693
aF0.05553340315818787
aF0.06492839455604553
aF0.060031366348266606
aF0.060031366348266606
aF0.06049492955207825
aF0.4294167160987854
aF0.06552956104278565
aF0.19496514797210696
aF0.05725786685943604
aF0.1326373338699341
aF0.06007626056671143
aF0.3435642123222351
aF0.961455762386322
aF1.04836905002594
aF0.1344212532043457
aF0.5853846669197083
aF0.16449763774871828
aF0.12993665933609008
aF0.38860437273979187
aF0.12993665933609008
aF0.1311877965927124
aF0.13268237113952638
aF0.3086131811141968
aF0.09549391269683838
aF0.6870808601379395
aF0.2087721109390259
aF0.09542249441146851
aF0.0960292398929596
aF0.09542249441146851
aF0.10382518768310547
aF0.5482662320137024
aF0.09097867608070374
aF0.15853843688964844
aF0.17158790826797488
aF1.1549829244613647
aF0.3435642123222351
aF0.15131189823150637
aF0.15980951786041261
aF0.15853843688964844
aF0.5142195224761963
aF0.15853843688964844
aF0.9127718210220337
aF0.49269840121269226
aF0.5002425670623779
aF2.5860633850097656
aF4.667315483093262
aF4.295188903808594
aF1.6813546419143677
aF0.47504391670227053
aF0.6556596159934998
aF0.46022510528564453
aF0.46022510528564453
aF1.9187034368515015
aF2.1313822269439697
aF2.8720321655273438
aF36.48636341094971
aF12.728983879089355
aF19.567848205566406
aF33.94545555114746
aF4.295188903808594
aF2.530458927154541
aF2.3552212715148926
aF2.0019702911376953
aF0.2948641777038574
aF0.5865730047225952
aF0.8793026208877563
aF0.27257485389709474
aF0.25952863693237305
aF0.27442910671234133
aF0.27257485389709474
aF0.27257485389709474
aF1.571596622467041
aF3.541947603225708
aF2.7790427207946777
aF0.4797873795032501
aF0.4797873795032501
aF0.5186767578125
aF0.4797873795032501
aF1.5479644536972046
aF0.45818760991096497
aF0.48406070470809937
aF1.0294954776763916
aF605.1143169403076
aF15.601788520812988
aF215.3532600402832
aF19.901348114013672
aF9.386281967163086
aF11.459203720092773
aF634.9444389343262
aF326.0930061340332
aF59.31333541870117
aF11.067140579223633
aF2.7807934284210205
aF0.8685299754142761
aF0.8615817427635193
aF4.9990386962890625
aF0.8615817427635193
aF0.930776059627533
aF0.8622265458106995
aF6.3968281745910645
aF0.8230628967285156
aF1.8387268781661987
aF28073.23932647705
aF23588.449478149414
aF114.11359786987305
aF96.82366180419922
aF57.37993240356445
aF44.81097221374512
aF12979.192733764648
aF1410.6022834777832
aF9365.374565124512
aF72.91414642333984
aF52970.476150512695
aF737.5609588623047
aF2355623.435974121
aF1462887.4778747559
aF4595956.325531006
aF501.38050079345703
aF696.0604095458984
aF265.96906661987305
aF1819093.894958496
aF604.8855209350586
aF1.5703022480010986
aF1.4939656257629395
aF1.5668418407440186
aF1.5668418407440186
aF11.656442642211914
aF3.3326923847198486
aF9.090476036071777
aF1.5807487964630127
aF1.691028356552124
aF5.055377960205078
aF7670.219421386719
aF8864.673614501953
aF1131969928.741455
aF8484.37728881836
aF4667123794.555664
aF1015187358.8562012
aF8945.018768310547
aF1191465091.7053223
aF4974383.354187012
aF3361.2918853759766
aF2.8812034130096436
aF9.287787437438965
aF6.109936237335205
aF3.10732364654541
aF2.7467331886291504
aF2.901902198791504
aF2.8812034130096436
aF2.8812034130096436
aF16.778383255004883
aF21.441221237182617
aF119409914016723.62
aF446993.3319091797
aF9497440338134.766
aF170477.00881958008
aF4066262435.913086
aF441358.9859008789
aF425290.1077270508
aF7149140834808.35
aF445644.03533935547
aF12031594276428.223
aF31.02851629257202
aF5.336248397827148
aF5.075652122497559
aF5.336248397827148
aF5.336248397827148
aF5.373305320739746
aF5.759917259216309
aF11.269497871398926
aF39.80248689651489
aF17.242347717285156
aF39402704.2388916
aF37887432098388.67
aF103108739.85290527
aF103108739.85290527
aF1.1482343673706054e+18
aF1.6340217590332032e+18
aF2.064658546447754e+18
aF103108739.85290527
aF9.761086463928223e+19
aF102037487.0300293
aF10.005465507507324
aF20.929067611694336
aF9.931350708007812
aF9.931350708007812
aF9.455652236938477
aF10.693434715270996
aF73.9204216003418
aF32.08336353302002
aF57.68909454345703
aF9.931350708007812
aF1.6543615341186522e+25
aF1.933623695373535e+25
aF67225837707.51953
aF8.928885459899902e+18
aF1.13237886428833e+25
aF175686588287.35352
aF175150947570.80078
aF175686588287.35352
aF8.007881164550781e+27
aF175686588287.35352
aF107.71186828613281
aF18.52863883972168
aF18.52863883972168
aF18.52863883972168
aF17.686281204223633
aF20.008132934570312
aF59.728312492370605
aF138.5979413986206
aF18.676868438720703
aF39.09825801849365
aF9.199997901916503e+35
aF1.6906055450439455e+27
aF7076403617858887.0
aF6.2445168495178224e+35
aF1.0898300170898438e+40
aF1.8532793045043944e+16
aF1.8532793045043944e+16
aF1.8532793045043944e+16
aF1.0674643516540527e+36
aF1.8532793045043944e+16
aF112.19335556030273
aF202.25996017456055
aF34.98207092285156
aF37.42051601409912
aF33.097084045410156
aF34.71157455444336
aF34.71157455444336
aF259.4322443008423
aF34.71157455444336
aF73.16600799560547
ass.