(dp0
S'high'
p1
(dp2
S'met'
p3
(lp4
I75
aI75
aI75
aI75
aI75
aI75
aI75
aI75
aI75
aI75
aI75
aI75
aI75
aI75
aI75
aI75
aI75
aI75
aI75
aI75
aI75
aI75
aI75
aI75
aI75
aI75
aI75
aI75
aI75
aI75
aI75
asS'ctau'
p5
(lp6
I1000
aI1172
aI853
aI621
aI1610
aI452
aI2212
aI329
aI3039
aI240
aI4175
aI5736
aI174
aI127
aI7880
aI10826
aI92
aI14874
aI67
aI49
aI20434
aI36
aI28072
aI26
aI38566
aI19
aI52983
aI14
aI72790
aI10
aI100000
asS'limit'
p7
(lp8
F0.11596211219905478
aF0.13672979099905747
aF0.10016559539069834
aF0.08080600118413132
aF0.20086825566430946
aF0.07251728046940958
aF0.31360792596890774
aF0.07444617043628406
aF0.5127300451402619
aF0.0905190758086124
aF0.8704057632882017
aF1.5192956404977531
aF0.13904442687249746
aF0.2904283706381877
aF2.7129617647372783
aF4.9088098727411955
aF0.9058177266933436
aF8.983898286304829
aF4.373445249693841
aF36.68574302100346
aF16.574918129909666
aF627.5143168379152
aF30.77384457736216
aF37701.63030177338
aF57.387874157716546
aF8735932.543621907
aF107.36815588816707
aF13698491951.801004
aF201.3588239607845
aF1337689886502852.2
aF378.2735104730193
asS'16.0'
p9
(lp10
F0.07015065141492226
aF0.08287982206504699
aF0.06057654678266817
aF0.04882834197089061
aF0.12164066327210742
aF0.0437908257411007
aF0.18991061836795642
aF0.04496634903677321
aF0.3103815652251727
aF0.05460343654618659
aF0.527533171756239
aF0.9207724925177594
aF0.08415583276893457
aF0.17553466608460688
aF1.644422662818953
aF2.988986559752651
aF0.5871649288803654
aF5.441187113466884
aF3.025879964530101
aF26.24660223291041
aF10.038500483630374
aF452.3181047976517
aF18.651235599589953
aF26548.992872785555
aF34.8410365203574
aF5784647.687187926
aF65.07410305608245
aF9034980401.904226
aF121.90186368322425
aF884060060574338.0
aF229.69125470965483
asS'84.0'
p11
(lp12
F0.19983416352174102
aF0.23609503352189165
aF0.17250243320232161
aF0.1390945162514849
aF0.34651082806070904
aF0.12470212412625413
aF0.5384880407458454
aF0.12864400302837917
aF0.8841662956307268
aF0.15621469523165427
aF1.4888673886264496
aF2.5987147013816685
aF0.23972992813519334
aF0.4861738182060729
aF4.641087042611067
aF8.371763789378551
aF1.4469160693383476
aF15.285156994186472
aF6.758564657067706
aF55.62855528964841
aF28.199738563194337
aF944.4386389170729
aF52.148798851732
aF57583.03845734772
aF97.5006579371262
aF13887952.892417112
aF181.94699778132838
aF22073074622.403275
aF340.8372467615329
aF2151568978034465.8
aF642.7778972207877
asS'50.0'
p13
(lp14
F0.11581502144116146
aF0.13683021006788895
aF0.10043881419695747
aF0.08061301439450541
aF0.20082231227833613
aF0.07260728522412527
aF0.313532403399899
aF0.07455635911739031
aF0.5124235756397852
aF0.0905351115086496
aF0.8709294121376684
aF1.5201467671716011
aF0.13893683636499637
aF0.2897984652489116
aF2.7148549886765143
aF4.897155579498744
aF0.9055073602010455
aF8.983112622636177
aF4.371397349339668
aF36.64147332856204
aF16.57303425270053
aF627.0225762758885
aF30.792205165626946
aF37730.72812835308
aF57.30129917180643
aF8756875.885326339
aF107.43390814901802
aF13677272374.092104
aF201.25354036537144
aF1333189749408620.2
aF377.76164597098824
asS'2.5'
p15
(lp16
F0.047049852460471844
aF0.05558727284007988
aF0.04041092914955711
aF0.03274903709776782
aF0.08158406436307405
aF0.02921308741439415
aF0.12737253888120897
aF0.029997285113637504
aF0.20817207760366277
aF0.03642623627105824
aF0.3538150736809278
aF0.617559624163463
aF0.05644308977327978
aF0.11773062650737035
aF1.102909839149834
aF1.9894694541713647
aF0.39615947008795743
aF3.6493895029459473
aF2.2710775291491245
aF20.61082874731615
aF6.73279516515959
aF357.59881303234266
aF12.509333348535947
aF20486.606288441715
aF23.27865278854636
aF4173198.6641008337
aF43.64502518553857
aF6518075115.778268
aF81.75925077343214
aF640556012411173.0
aF153.46566867571397
asS'97.5'
p17
(lp18
F0.32480252899986356
aF0.3823333790700555
aF0.28153618377759804
aF0.22607872956833677
aF0.5590774610914312
aF0.20352269138656026
aF0.8723674971393109
aF0.20985905284141715
aF1.42129110186881
aF0.25576596331635204
aF2.403786717413362
aF4.195642766727289
aF0.3925030991093898
aF0.7855559744865869
aF7.436592164330156
aF13.41439880967857
aF2.294164139938482
aF24.590519450012692
aF10.485109700991853
aF85.48642801035031
aF45.19388605308912
aF1444.3552643125427
aF83.9113653717033
aF89060.5150504873
aF156.2579594147305
aF21850719.64290899
aF291.63567359804034
aF35643845001.885445
aF546.3145930336517
aF3474377505078320.5
aF1026.185615451058
assS'all'
p19
(dp20
g3
(lp21
I75
aI75
aI75
aI75
aI75
aI75
aI75
aI75
aI75
aI75
aI75
aI75
aI75
aI75
aI75
aI75
aI75
aI75
aI75
aI75
aI75
aI75
aI75
aI75
aI75
aI75
aI75
aI75
aI75
aI75
aI75
asg5
(lp22
I1000
aI1172
aI853
aI621
aI1610
aI452
aI2212
aI329
aI3039
aI240
aI4175
aI5736
aI174
aI127
aI7880
aI10826
aI92
aI14874
aI67
aI49
aI20434
aI36
aI28072
aI26
aI38566
aI19
aI52983
aI14
aI72790
aI10
aI100000
asg7
(lp23
F0.010884638992686092
aF0.011621869178826467
aF0.010577804962101698
aF0.011396151950885211
aF0.014568508567320618
aF0.015224334917940441
aF0.020222309646064886
aF0.02674731048785059
aF0.030348999074044525
aF0.06564990216247604
aF0.04832706419579397
aF0.0804601208343426
aF0.25304149188480224
aF1.5956524560570275
aF0.13845836000856074
aF0.2442193585603335
aF15.137800107614652
aF0.4386879029069882
aF74.14646223729463
aF443.474161171822
aF0.7984763421388555
aF5505.582047347691
aF1.467592780004748
aF278490.714506687
aF2.7169388431200887
aF64340231.65242383
aF5.05623944464446
aF109665013600.2581
aF9.444765711824065
aF1.1561161397787118e+16
aF17.6929584163045
asg9
(lp24
F0.007322031645683484
aF0.00784351075017359
aF0.007114906666463214
aF0.007608138192603804
aF0.009845626421077473
aF0.010109373947894913
aF0.01372589461239044
aF0.01761486636926686
aF0.020604658913689223
aF0.042805331452454055
aF0.03283262065449168
aF0.05472653796078875
aF0.1633885221255085
aF1.0333395079851628
aF0.0943300105777928
aF0.16574877908160246
aF12.227228638216719
aF0.2990830208881785
aF63.30534796655246
aF374.0922354817512
aF0.5426986291828575
aF4580.500986032962
aF0.9966795103601955
aF232414.75579935894
aF1.8545802060008196
aF53697116.04240009
aF3.4498644071879845
aF91524333291.00644
aF6.442787604972493
aF9648726006431316.0
aF12.066448580899534
asg11
(lp25
F0.017188831136748448
aF0.018344733991300752
aF0.016744787490711417
aF0.01808537245423207
aF0.022969197993784808
aF0.024303434441779775
aF0.031903278012948406
aF0.04271967914264491
aF0.047836193632048996
aF0.10499346959003074
aF0.07603232969527876
aF0.12673328940684747
aF0.4081830646388676
aF2.5862143773311583
aF0.2178920516934638
aF0.3836367574263543
aF19.300990731682987
aF0.6908492129777223
aF92.19458286971104
aF555.2699298890476
aF1.256112685558564
aF6961.915598395867
aF2.306882142460524
aF351533.5960298763
aF4.26816401712233
aF81218338.4565918
aF7.939579576589262
aF138433026316.9683
aF14.86519180374407
aF1.4593958711795114e+16
aF27.840444779935105
asg13
(lp26
F0.010892959818657786
aF0.011625482190233771
aF0.010584820741245192
aF0.011403507103432506
aF0.014592974785863338
aF0.015209548463022061
aF0.020269045275295626
aF0.026734781898477836
aF0.030314900470715177
aF0.06570689563095584
aF0.04830546487097628
aF0.08051720527564322
aF0.25292493825626716
aF1.5946345011612422
aF0.13878438337882157
aF0.24435398357609883
aF15.137593623133046
aF0.440030191651573
aF74.16215516670806
aF443.81804389087694
aF0.8000696756676058
aF5494.521957401182
aF1.469347829013492
aF279195.9352955569
aF2.71856867631005
aF64505441.9396434
aF5.057043790584946
aF109946641501.3022
aF9.444272355718825
aF1.1590852192284022e+16
aF17.6878136843033
asg15
(lp27
F0.005318828036453997
aF0.0057219170155056835
aF0.005168369502561129
aF0.005479028803602337
aF0.007182479777417111
aF0.007248300439408951
aF0.010055346679541189
aF0.012323063531329627
aF0.015157450235357589
aF0.029516769521718444
aF0.02415273243548814
aF0.04025860263782161
aF0.10966667244705333
aF0.6851945122177213
aF0.0693921916894108
aF0.12313149953639356
aF9.2244711140967
aF0.2200150958257865
aF57.214943927440785
aF329.39620445026026
aF0.40316011000437946
aF4013.5765860703946
aF0.74041355446383
aF203398.6012993022
aF1.3699037470468611
aF46993222.350560516
aF2.5482759725994453
aF80097846249.97212
aF4.75902786674894
aF8444116929144414.0
aF8.91299986435596
asg17
(lp28
F0.02714824922399003
aF0.02897389626912376
aF0.026516744424606963
aF0.028584382037216118
aF0.03618065750570919
aF0.03836296175564899
aF0.05025345296684221
aF0.06773438035455458
aF0.07520660133867033
aF0.16795429344536683
aF0.1197647117161696
aF0.19962792481532152
aF0.6506793539116289
aF4.018165502883507
aF0.34387913607577697
aF0.6054588760138997
aF25.04381125620127
aF1.0852478396071092
aF117.71318951075668
aF713.5125407097103
aF1.9824079441244344
aF8979.667588853516
aF3.64074142228645
aF456466.66798816173
aF6.736053501925145
aF105462080.30615775
aF12.530313407860922
aF179755400269.20667
aF23.415375642352487
aF1.895026757375348e+16
aF43.853754541408634
assS'comb'
p29
(dp30
g3
(lp31
I75
aI75
aI75
aI75
aI75
aI75
aI75
aI75
aI75
aI75
aI75
aI75
aI75
aI75
aI75
aI75
aI75
aI75
aI75
aI75
aI75
aI75
aI75
aI75
aI75
aI75
aI75
aI75
aI75
aI75
aI75
asg5
(lp32
I1000
aI1172
aI853
aI621
aI1610
aI452
aI2212
aI329
aI3039
aI240
aI4175
aI5736
aI174
aI127
aI7880
aI10826
aI92
aI14874
aI67
aI49
aI20434
aI36
aI28072
aI26
aI38566
aI19
aI52983
aI14
aI72790
aI10
aI100000
asg7
(lp33
F0.010734151731786623
aF0.011490221336716618
aF0.010397724125895015
aF0.011071558051940865
aF0.01444537269120921
aF0.014379982608673167
aF0.020076921623700603
aF0.02345904053259892
aF0.03017821067783672
aF0.04729247688009832
aF0.04806898579693014
aF0.0800880895629768
aF0.1086390367959145
aF0.27347985209970704
aF0.13786316079293148
aF0.24323793536712313
aF0.901816874076615
aF0.43699646514462864
aF4.376333868127685
aF36.757113059527626
aF0.7954891207095293
aF627.0880883066965
aF1.462221164608935
aF37656.009840733364
aF2.7071510730319157
aF8744583.880609933
aF5.038232916018186
aF13664030423.132788
aF9.41248012939044
aF1333970706108719.5
aF17.632855149325646
asg9
(lp34
F0.007257200486786052
aF0.007773787258363574
aF0.006992314243422912
aF0.007423910761511844
aF0.00980602111039779
aF0.009621614212825638
aF0.013661737203794478
aF0.015534873112919996
aF0.020557058225160164
aF0.030415065553486047
aF0.032677016803243045
aF0.05451940422134126
aF0.06659733264290812
aF0.16639399105330543
aF0.09402004576609185
aF0.16565048636174431
aF0.5853110149937791
aF0.2983475555385726
aF3.034811447064867
aF26.25428116823442
aF0.5426073896554924
aF450.6643400853805
aF0.9948272714416345
aF26620.022279316763
aF1.8408778508694634
aF5767581.961230344
aF3.4247275404576176
aF9042558415.227215
aF6.3963204786024495
aF881140155442917.1
aF12.014296874796
asg11
(lp35
F0.016930571329695974
aF0.01808980680744354
aF0.016414803255241164
aF0.017493121762521602
aF0.022734544380181153
aF0.022702656238219945
aF0.0316372450054578
aF0.03710567243745016
aF0.047484567289877815
aF0.07589549112828826
aF0.07567198878389755
aF0.12593389141670056
aF0.1831516795304323
aF0.4567112314396176
aF0.2169287729726218
aF0.3826346017652052
aF1.4423474734653685
aF0.6866224208865058
aF6.761037273141633
aF55.49873649678889
aF1.2487663885953761
aF945.3849208910985
aF2.2967490595853794
aF57530.00256473238
aF4.25001866572176
aF13846980.49428833
aF7.926763325532299
aF22091587777.10368
aF14.804715992490955
aF2152685557389256.2
aF27.728684324358557
asg13
(lp36
F0.010756465783924613
aF0.011522139536912323
aF0.010402440439865705
aF0.011085796018648382
aF0.014480563305340909
aF0.014387197888375947
aF0.020100027150410267
aF0.02351472293810802
aF0.03024486727379886
aF0.04726104268098591
aF0.048076530469139185
aF0.08021245678542162
aF0.10865671161336454
aF0.2735362614174842
aF0.13782092062553897
aF0.2437156580954399
aF0.902648312279563
aF0.43733795740753095
aF4.384300392267947
aF36.65219347821683
aF0.7953904869030677
aF627.6508456272419
aF1.4666171786835596
aF37695.97623373603
aF2.713901354986754
aF8731041.564519815
aF5.048880732699654
aF13688744070.505651
aF9.429730932777481
aF1333881576898896.2
aF17.661536528714716
asg15
(lp37
F0.005294198003025396
aF0.005671053053324033
aF0.005079316621028176
aF0.0053696824465328105
aF0.007183716952258967
aF0.006856398993679162
aF0.010050013575205134
aF0.01074696321780718
aF0.01512243363689943
aF0.020307479276986132
aF0.024038265234569593
aF0.04010622839271081
aF0.04456622937266905
aF0.11219260722201502
aF0.069448823283963
aF0.12185782904771995
aF0.39490863662230885
aF0.22037733009988866
aF2.2777810631704565
aF20.61685883149697
aF0.4008022375409989
aF357.9571228967864
aF0.7390375626960125
aF20614.98700282439
aF1.367551854661294
aF4160886.9955914747
aF2.544162556711935
aF6523542096.100349
aF4.751700352844903
aF635677938990880.2
aF8.899758641422649
asg17
(lp38
F0.026668722445942997
aF0.028549491426433034
aF0.02580685313844778
aF0.027502152176925768
aF0.03587985691471122
aF0.0356924231704767
aF0.049834402488530875
aF0.058336409172119755
aF0.0745930127741806
aF0.11987151233258989
aF0.11919710906642662
aF0.19782824006681166
aF0.29244434818226095
aF0.735085399051307
aF0.34170217499125494
aF0.5982761998804988
aF2.266569392358159
aF1.0786080194494674
aF10.508549044554943
aF85.443527402632
aF1.9708138971478228
aF1445.802460864933
aF3.597940601036426
aF88755.44646612862
aF6.657808195782365
aF21786256.363676343
aF12.394053865127967
aF35368523667.27318
aF23.148218249159417
aF3461309921984213.0
aF43.35575480325713
assS'low'
p39
(dp40
g3
(lp41
I75
aI75
aI75
aI75
aI75
aI75
aI75
aI75
aI75
aI75
aI75
aI75
aI75
aI75
aI75
aI75
aI75
aI75
aI75
aI75
aI75
aI75
aI75
aI75
aI75
aI75
aI75
aI75
aI75
aI75
aI75
asg5
(lp42
I1000
aI1172
aI853
aI621
aI1610
aI452
aI2212
aI329
aI3039
aI240
aI4175
aI5736
aI174
aI127
aI7880
aI10826
aI92
aI14874
aI67
aI49
aI20434
aI36
aI28072
aI26
aI38566
aI19
aI52983
aI14
aI72790
aI10
aI100000
asg7
(lp43
F0.010884638992686092
aF0.011621869178826467
aF0.010577804962101698
aF0.011396151950885211
aF0.014568508567320618
aF0.015224334917940441
aF0.020222309646064886
aF0.02674731048785059
aF0.030348999074044525
aF0.06564990216247604
aF0.04832706419579397
aF0.0804601208343426
aF0.25304149188480224
aF1.5956524560570275
aF0.13845836000856074
aF0.2442193585603335
aF15.137800107614652
aF0.4386879029069882
aF74.14646223729463
aF443.474161171822
aF0.7984763421388555
aF5505.582047347691
aF1.467592780004748
aF278490.714506687
aF2.7169388431200887
aF64340231.65242383
aF5.05623944464446
aF109665013600.2581
aF9.444765711824065
aF1.1561161397787118e+16
aF17.6929584163045
asg9
(lp44
F0.007322031645683484
aF0.00784351075017359
aF0.007114906666463214
aF0.007608138192603804
aF0.009845626421077473
aF0.010109373947894913
aF0.01372589461239044
aF0.01761486636926686
aF0.020604658913689223
aF0.042805331452454055
aF0.03283262065449168
aF0.05472653796078875
aF0.1633885221255085
aF1.0333395079851628
aF0.0943300105777928
aF0.16574877908160246
aF12.227228638216719
aF0.2990830208881785
aF63.30534796655246
aF374.0922354817512
aF0.5426986291828575
aF4580.500986032962
aF0.9966795103601955
aF232414.75579935894
aF1.8545802060008196
aF53697116.04240009
aF3.4498644071879845
aF91524333291.00644
aF6.442787604972493
aF9648726006431316.0
aF12.066448580899534
asg11
(lp45
F0.017188831136748448
aF0.018344733991300752
aF0.016744787490711417
aF0.01808537245423207
aF0.022969197993784808
aF0.024303434441779775
aF0.031903278012948406
aF0.04271967914264491
aF0.047836193632048996
aF0.10499346959003074
aF0.07603232969527876
aF0.12673328940684747
aF0.4081830646388676
aF2.5862143773311583
aF0.2178920516934638
aF0.3836367574263543
aF19.300990731682987
aF0.6908492129777223
aF92.19458286971104
aF555.2699298890476
aF1.256112685558564
aF6961.915598395867
aF2.306882142460524
aF351533.5960298763
aF4.26816401712233
aF81218338.4565918
aF7.939579576589262
aF138433026316.9683
aF14.86519180374407
aF1.4593958711795114e+16
aF27.840444779935105
asg13
(lp46
F0.010892959818657786
aF0.011625482190233771
aF0.010584820741245192
aF0.011403507103432506
aF0.014592974785863338
aF0.015209548463022061
aF0.020269045275295626
aF0.026734781898477836
aF0.030314900470715177
aF0.06570689563095584
aF0.04830546487097628
aF0.08051720527564322
aF0.25292493825626716
aF1.5946345011612422
aF0.13878438337882157
aF0.24435398357609883
aF15.137593623133046
aF0.440030191651573
aF74.16215516670806
aF443.81804389087694
aF0.8000696756676058
aF5494.521957401182
aF1.469347829013492
aF279195.9352955569
aF2.71856867631005
aF64505441.9396434
aF5.057043790584946
aF109946641501.3022
aF9.444272355718825
aF1.1590852192284022e+16
aF17.6878136843033
asg15
(lp47
F0.005318828036453997
aF0.0057219170155056835
aF0.005168369502561129
aF0.005479028803602337
aF0.007182479777417111
aF0.007248300439408951
aF0.010055346679541189
aF0.012323063531329627
aF0.015157450235357589
aF0.029516769521718444
aF0.02415273243548814
aF0.04025860263782161
aF0.10966667244705333
aF0.6851945122177213
aF0.0693921916894108
aF0.12313149953639356
aF9.2244711140967
aF0.2200150958257865
aF57.214943927440785
aF329.39620445026026
aF0.40316011000437946
aF4013.5765860703946
aF0.74041355446383
aF203398.6012993022
aF1.3699037470468611
aF46993222.350560516
aF2.5482759725994453
aF80097846249.97212
aF4.75902786674894
aF8444116929144414.0
aF8.91299986435596
asg17
(lp48
F0.02714824922399003
aF0.02897389626912376
aF0.026516744424606963
aF0.028584382037216118
aF0.03618065750570919
aF0.03836296175564899
aF0.05025345296684221
aF0.06773438035455458
aF0.07520660133867033
aF0.16795429344536683
aF0.1197647117161696
aF0.19962792481532152
aF0.6506793539116289
aF4.018165502883507
aF0.34387913607577697
aF0.6054588760138997
aF25.04381125620127
aF1.0852478396071092
aF117.71318951075668
aF713.5125407097103
aF1.9824079441244344
aF8979.667588853516
aF3.64074142228645
aF456466.66798816173
aF6.736053501925145
aF105462080.30615775
aF12.530313407860922
aF179755400269.20667
aF23.415375642352487
aF1.895026757375348e+16
aF43.853754541408634
ass.