(dp0
S'csccsc'
p1
(dp2
S'high'
p3
(dp4
S'ctau'
p5
(lp6
I1000
aI1172
aI853
aI621
aI1610
aI452
aI2212
aI329
aI3039
aI240
aI4175
aI5736
aI174
aI127
aI7880
aI10826
aI92
aI14874
aI67
aI49
aI20434
aI36
aI28072
aI26
aI38566
aI19
aI52983
aI14
aI72790
aI10
aI100000
asS'limit'
p7
(lp8
I1
aI1
aI1
aI1
aI1
aI1
aI1
aI1
aI1
aI1
aI1
aI1
aI1
aI1
aI1
aI1
aI1
aI1
aI1
aI1
aI1
aI1
aI1
aI1
aI1
aI1
aI1
aI1
aI1
aI1
aI1
asS'16.0'
p9
(lp10
I1
aI1
aI1
aI1
aI1
aI1
aI1
aI1
aI1
aI1
aI1
aI1
aI1
aI1
aI1
aI1
aI1
aI1
aI1
aI1
aI1
aI1
aI1
aI1
aI1
aI1
aI1
aI1
aI1
aI1
aI1
asS'84.0'
p11
(lp12
I1
aI1
aI1
aI1
aI1
aI1
aI1
aI1
aI1
aI1
aI1
aI1
aI1
aI1
aI1
aI1
aI1
aI1
aI1
aI1
aI1
aI1
aI1
aI1
aI1
aI1
aI1
aI1
aI1
aI1
aI1
asS'50.0'
p13
(lp14
I1
aI1
aI1
aI1
aI1
aI1
aI1
aI1
aI1
aI1
aI1
aI1
aI1
aI1
aI1
aI1
aI1
aI1
aI1
aI1
aI1
aI1
aI1
aI1
aI1
aI1
aI1
aI1
aI1
aI1
aI1
asS'2.5'
p15
(lp16
I1
aI1
aI1
aI1
aI1
aI1
aI1
aI1
aI1
aI1
aI1
aI1
aI1
aI1
aI1
aI1
aI1
aI1
aI1
aI1
aI1
aI1
aI1
aI1
aI1
aI1
aI1
aI1
aI1
aI1
aI1
asS'97.5'
p17
(lp18
I1
aI1
aI1
aI1
aI1
aI1
aI1
aI1
aI1
aI1
aI1
aI1
aI1
aI1
aI1
aI1
aI1
aI1
aI1
aI1
aI1
aI1
aI1
aI1
aI1
aI1
aI1
aI1
aI1
aI1
aI1
assS'comb'
p19
(dp20
g5
(lp21
I1000
aI1172
aI853
aI621
aI1610
aI452
aI2212
aI329
aI3039
aI240
aI4175
aI5736
aI174
aI127
aI7880
aI10826
aI92
aI14874
aI67
aI49
aI20434
aI36
aI28072
aI26
aI38566
aI19
aI52983
aI14
aI72790
aI10
aI100000
asg7
(lp22
I1
aI1
aI1
aI1
aI1
aI1
aI1
aI1
aI1
aI1
aI1
aI1
aI1
aI1
aI1
aI1
aI1
aI1
aI1
aI1
aI1
aI1
aI1
aI1
aI1
aI1
aI1
aI1
aI1
aI1
aI1
asg9
(lp23
I1
aI1
aI1
aI1
aI1
aI1
aI1
aI1
aI1
aI1
aI1
aI1
aI1
aI1
aI1
aI1
aI1
aI1
aI1
aI1
aI1
aI1
aI1
aI1
aI1
aI1
aI1
aI1
aI1
aI1
aI1
asg11
(lp24
I1
aI1
aI1
aI1
aI1
aI1
aI1
aI1
aI1
aI1
aI1
aI1
aI1
aI1
aI1
aI1
aI1
aI1
aI1
aI1
aI1
aI1
aI1
aI1
aI1
aI1
aI1
aI1
aI1
aI1
aI1
asg13
(lp25
I1
aI1
aI1
aI1
aI1
aI1
aI1
aI1
aI1
aI1
aI1
aI1
aI1
aI1
aI1
aI1
aI1
aI1
aI1
aI1
aI1
aI1
aI1
aI1
aI1
aI1
aI1
aI1
aI1
aI1
aI1
asg15
(lp26
I1
aI1
aI1
aI1
aI1
aI1
aI1
aI1
aI1
aI1
aI1
aI1
aI1
aI1
aI1
aI1
aI1
aI1
aI1
aI1
aI1
aI1
aI1
aI1
aI1
aI1
aI1
aI1
aI1
aI1
aI1
asg17
(lp27
I1
aI1
aI1
aI1
aI1
aI1
aI1
aI1
aI1
aI1
aI1
aI1
aI1
aI1
aI1
aI1
aI1
aI1
aI1
aI1
aI1
aI1
aI1
aI1
aI1
aI1
aI1
aI1
aI1
aI1
aI1
assS'low'
p28
(dp29
g5
(lp30
I1000
aI1172
aI853
aI621
aI1610
aI452
aI2212
aI329
aI3039
aI240
aI4175
aI5736
aI174
aI127
aI7880
aI10826
aI92
aI14874
aI67
aI49
aI20434
aI36
aI28072
aI26
aI38566
aI19
aI52983
aI14
aI72790
aI10
aI100000
asg7
(lp31
F0.029454804269580158
aF0.03575958602684006
aF0.024645442267534116
aF0.01830175561801822
aF0.05549971732216284
aF0.01503367382825027
aF0.09037210163931485
aF0.013778993188606791
aF0.15286473605085066
aF0.01443433721961135
aF0.2660955228870446
aF0.4733077360216995
aF0.01763535438945775
aF0.025771666017456205
aF0.8551666155704324
aF1.5636087978478221
aF0.04731782997155307
aF2.883868426692122
aF0.1132051754808456
aF0.3760220185298892
aF5.3516307308297595
aF1.9493510075569591
aF9.976453501113092
aF23.74292555446051
aF18.66108036987141
aF973.7316754672831
aF34.991791255113036
aF9574.880101071678
aF65.73028559956201
aF561997.525760232
aF123.62825918863156
asg9
(lp32
F0.020200481635147965
aF0.024533345194949204
aF0.01682949945745244
aF0.01258560393768798
aF0.03794736809409462
aF0.010273787032209348
aF0.061746153837008
aF0.009408647323521929
aF0.10444476859809135
aF0.009889183270160069
aF0.18271479497118395
aF0.3247469479777831
aF0.012062523066849424
aF0.017625918941939517
aF0.584607623908193
aF1.0733075634571216
aF0.03251853234578707
aF1.979152406099552
aF0.07725941486175161
aF0.2579200740395812
aF3.674097720841501
aF1.3381688863137402
aF6.8509347919781485
aF16.489574249978695
aF12.809105245184037
aF755.897515441061
aF24.043679059152353
aF6786.154816785531
aF45.14298457841864
aF406702.7548149571
aF84.93587089539324
asg11
(lp33
F0.04437387701692538
aF0.054045302819598635
aF0.037180177665126546
aF0.027646472043329505
aF0.08361306387900734
aF0.022637216055897223
aF0.13605120436586388
aF0.020785833768542376
aF0.23013314670446897
aF0.02178065024915207
aF0.400305502556971
aF0.7114803464589832
aF0.026648847517093562
aF0.038836872426761024
aF1.2881218892893862
aF2.351484103147738
aF0.0716211589679878
aF4.3360780262140874
aF0.17068355081475622
aF0.5665663608048441
aF8.049493375221923
aF2.9317625133946867
aF15.009550064265218
aF35.17822145251441
aF28.063163795193866
aF1241.614593274332
aF52.67672381951475
aF13849.56551742128
aF98.90268946188178
aF790270.3666571828
aF186.08397551415786
asg13
(lp34
F0.029382518742033403
aF0.03578653202226209
aF0.02461915349204471
aF0.018306333000273425
aF0.055511578469075555
aF0.01502908274426053
aF0.09032580218442314
aF0.013763506941837792
aF0.15278777577777936
aF0.01438426657477828
aF0.2657669745035403
aF0.4723591970585936
aF0.01764574802921973
aF0.025784201423637236
aF0.8551974384028422
aF1.561174637755813
aF0.047299683412053914
aF2.878767136144803
aF0.11301948688347666
aF0.3751564713303
aF5.344142139405819
aF1.946427471001804
aF9.964996061059125
aF23.732008477833006
aF18.631425811176783
aF973.7871436535889
aF34.97262408603979
aF9548.639687239276
aF65.66252302315439
aF561839.6235150301
aF123.5430849387538
asg15
(lp35
F0.014691259371016702
aF0.017893266011131045
aF0.012309576746022354
aF0.009153166500136712
aF0.027755789234537778
aF0.007514541372130265
aF0.04516290109221157
aF0.006881753470918896
aF0.07639388788888968
aF0.00719213328738914
aF0.13288348725177015
aF0.2361795985292968
aF0.008822874014609865
aF0.012892100711818618
aF0.4275987192014211
aF0.7805873188779066
aF0.023649841706026957
aF1.4393835680724014
aF0.05650974344173833
aF0.18757823566515
aF2.6720710697029095
aF0.973213735500902
aF4.9824980305295625
aF12.144113713266108
aF9.315712905588391
aF616.2246768432867
aF17.486312043019893
aF5072.7148338458655
aF32.831261511577196
aF307256.0441097821
aF61.7715424693769
asg17
(lp36
F0.06580683486306581
aF0.07993567003988937
aF0.054991318586724236
aF0.040999951940656164
aF0.12387842919131921
aF0.03362866643632547
aF0.20156909845424875
aF0.030907859646844095
aF0.34095786769228875
aF0.03233164926098691
aF0.5930797771398442
aF1.0541064895157193
aF0.039520464222058994
aF0.05769403016407977
aF1.903313470422242
aF3.4838833875051147
aF0.1060338594030135
aF6.424194219805073
aF0.2531251398067075
aF0.8379795653078791
aF11.925870900824291
aF4.331937221345126
aF22.23766837970393
aF51.36018466672605
aF41.57748335093138
aF1543.8757368811193
aF77.83449498098092
aF19722.45225282856
aF146.13742797856173
aF1087968.6454336538
aF274.95545249629885
asssS'cscdt'
p37
(dp38
g3
(dp39
g5
(lp40
sg7
(lp41
sg9
(lp42
sg11
(lp43
sg13
(lp44
sg15
(lp45
sg17
(lp46
ssg19
(dp47
g5
(lp48
sg7
(lp49
sg9
(lp50
sg11
(lp51
sg13
(lp52
sg15
(lp53
sg17
(lp54
ssg28
(dp55
g5
(lp56
sg7
(lp57
sg9
(lp58
sg11
(lp59
sg13
(lp60
sg15
(lp61
sg17
(lp62
sss.