(dp0
S'high'
p1
(dp2
S'ctau'
p3
(lp4
I1000
aI1172
aI853
aI621
aI1610
aI452
aI2212
aI329
aI3039
aI240
aI4175
aI5736
aI174
aI127
aI7880
aI10826
aI92
aI14874
aI67
aI49
aI20434
aI36
aI28072
aI26
aI38566
aI19
aI52983
aI14
aI72790
aI10
aI100000
asS'limit'
p5
(lp6
F0.0670313520068631
aF0.07878543767748966
aF0.05817317053495374
aF0.046926474430759826
aF0.11478546850178169
aF0.042076963149860036
aF0.1775859955735627
aF0.042815608181475555
aF0.287815579738254
aF0.051119608623616544
aF0.4849600761654114
aF0.8411772688111618
aF0.07538314124760553
aF0.1441616104930497
aF1.4911641218615759
aF2.6907890107926584
aF0.4023086463568899
aF4.909578308410361
aF1.7697715265996976
aF13.965794930997562
aF9.038351778666044
aF234.16859965886223
aF16.750343654248145
aF14577.784692660865
aF31.196795357712418
aF3721720.869239581
aF58.31203190654201
aF6431771881.962101
aF109.2832865698437
aF641792688852453.1
aF205.19614324644118
asS'16.0'
p7
(lp8
F0.034310086572925814
aF0.040207301354677996
aF0.029761223185365854
aF0.02398544539561022
aF0.05913711867963924
aF0.021492590359153452
aF0.09085792742992485
aF0.021948192346321903
aF0.14724968849034137
aF0.026193380672761758
aF0.2481894837447578
aF0.4312783535156583
aF0.038532416619725826
aF0.07377496969559114
aF0.7657049384078037
aF1.3781006619966212
aF0.20564393103519119
aF2.509153249019177
aF0.9049633700463585
aF7.196983781337041
aF4.63705901692487
aF119.76701727460505
aF8.630102506415037
aF7444.2701746011635
aF15.941790317412293
aF1901225.481397323
aF29.77944522808961
aF3285700633.8754897
aF55.97652137445021
aF327862905523183.94
aF105.0698624428088
asS'84.0'
p9
(lp10
F0.1329212822813264
aF0.1557677879951203
aF0.11529845694948153
aF0.09292241246525543
aF0.22755404393404463
aF0.08326480527282498
aF0.35199422871096886
aF0.08502986470598516
aF0.5704624883867088
aF0.10147621625513104
aF0.9615150213517254
aF1.6640973158184609
aF0.14987995093775916
aF0.2858128478512506
aF2.9504030755919266
aF5.295942852440551
aF0.7966886282281048
aF9.681624790596997
aF3.5059339000375287
aF27.693313603898055
aF17.795528873545113
aF463.991422637292
aF33.074690451297926
aF28839.97096370514
aF61.51176004504651
aF7365569.275821291
aF114.90466582941438
aF12729187503.121965
aF215.11379719986996
aF1270179138262028.2
aF403.77602120265016
asS'50.0'
p11
(lp12
F0.06711275768992557
aF0.07864809281220682
aF0.05821488546669462
aF0.046917088987783885
aF0.1144328041156501
aF0.04204090263184935
aF0.17772400704535443
aF0.04293208970894676
aF0.28802995418168015
aF0.051235953789700174
aF0.4854747494835377
aF0.8436084699141052
aF0.07537190949111604
aF0.14430863222213053
aF1.4896763891080516
aF2.6956543990153583
aF0.40225288515766144
aF4.908066718234264
aF1.7701671268910624
aF13.92646536830354
aF9.021382762369777
aF234.27206435376425
aF16.69961018839069
aF14561.475948025962
aF31.183177239790236
aF3718920.521396101
aF58.25052896573784
aF6427043837.800385
aF109.493711341809
aF641321137069227.0
aF205.52347495976352
asS'2.5'
p13
(lp14
F0.01939978151974411
aF0.022734214328528533
aF0.016827740330216414
aF0.01356197103553128
aF0.033078232439680104
aF0.012152448417018952
aF0.05137334578654777
aF0.012410057181492424
aF0.08325865863064193
aF0.014810392892335206
aF0.1403325447725851
aF0.24385557333454605
aF0.02178719258727573
aF0.041714214001709604
aF0.43060958122654613
aF0.779212599715377
aF0.11627622461588652
aF1.4187380357395918
aF0.5116889351169477
aF4.025618895525242
aF2.6077434547475136
aF67.71926860225997
aF4.827231070081684
aF4209.176641226255
aF9.013887170876865
aF1075000.4632160605
aF16.838043529158597
aF1857817359.364174
aF31.650525934741662
aF185381891184073.44
aF59.40912948055664
asS'97.5'
p15
(lp16
F0.20352416899868503
aF0.2385058748881693
aF0.1765407346659404
aF0.1422793778807417
aF0.34703266734193694
aF0.12749199470942787
aF0.5389605774339002
aF0.13019458755820573
aF0.8734711198555354
aF0.1553766382064311
aF1.4722363384461887
aF2.558249614680046
aF0.22857531234418307
aF0.437626091904918
aF4.517548703493599
aF8.174426044201628
aF1.2198601646927858
aF14.883752402725468
aF5.36815647195397
aF42.23385527689453
aF27.357416896246527
aF710.4465124539615
aF50.642744618220924
aF44158.70274837529
aF94.56324215004238
aF11277888.754911982
aF176.64520948578556
aF19490463700.05365
aF332.0337482830372
aF1944851576802504.8
aF623.2388044461895
assS'comb'
p17
(dp18
g3
(lp19
I1000
aI1172
aI853
aI621
aI1610
aI452
aI2212
aI329
aI3039
aI240
aI4175
aI5736
aI174
aI127
aI7880
aI10826
aI92
aI14874
aI67
aI49
aI20434
aI36
aI28072
aI26
aI38566
aI19
aI52983
aI14
aI72790
aI10
aI100000
asg5
(lp20
F0.005674972075860461
aF0.006145226163415824
aF0.005420902146014938
aF0.00560750277369613
aF0.007843781234493185
aF0.0069968802219424996
aF0.01106446029930933
aF0.010859924262636779
aF0.016795855787160405
aF0.0210754679197551
aF0.026957949413556434
aF0.045103765273425786
aF0.050419812784534564
aF0.13176527117656558
aF0.0780637736353271
aF0.13819058064495077
aF0.401537888582454
aF0.2488716689139977
aF1.7581097738877984
aF13.672023036480107
aF0.4538254404714484
aF225.36283300633136
aF0.8352540820444634
aF13755.630146665151
aF1.547817506722981
aF3462647.9494711
aF2.8825622272740783
aF5973533714.105194
aF5.3878854654686625
aF601297519087431.5
aF10.097010691743375
asg7
(lp21
F0.0035512500337277634
aF0.0038544484455684215
aF0.003402390404703908
aF0.0035046324239713564
aF0.004928260971857871
aF0.004343063669062124
aF0.006950027022703143
aF0.006688397250582198
aF0.010532735041151894
aF0.01268871671048208
aF0.01696380081027536
aF0.028331105244654552
aF0.029029932905935918
aF0.07020848057979398
aF0.04903268747091888
aF0.08698620217777238
aF0.20517611717808046
aF0.15633506289061985
aF0.9001856012771139
aF7.096318382225335
aF0.28480706805491773
aF117.76273726022849
aF0.5259502526288938
aF7291.2201907008175
aF0.9741459873251603
aF1843277.8592033156
aF1.8122269870515517
aF3185171535.9009137
aF3.3863678196272295
aF319737293236698.8
aF6.344865869383884
asg9
(lp22
F0.00952112083227008
aF0.010291850933723791
aF0.00912201867114591
aF0.009396135809765983
aF0.013159062332108354
aF0.011740215415023802
aF0.01855742612692643
aF0.018404019233191283
aF0.028123697648143074
aF0.03632865964422681
aF0.04513648590028575
aF0.07564753463025356
aF0.0896116299847038
aF0.24836131382526114
aF0.13092330071119945
aF0.23132005212851578
aF0.7948762158227886
aF0.4154501983437918
aF3.4593494434150283
aF26.512928798252357
aF0.7604698927182375
aF430.5494742146286
aF1.3986453093774762
aF25920.238509280774
aF2.590520128112922
aF6465407.312797104
aF4.815874540016969
aF11124524143.414637
aF8.999050716162651
aF1121497673898833.6
aF16.86106553898221
asg11
(lp23
F0.005675349254057323
aF0.006134766206741113
aF0.005437452632722281
aF0.00560084838415399
aF0.00784385348386627
aF0.006998107312540699
aF0.01106170999999692
aF0.010866987361517129
aF0.01676397230563752
aF0.021054479905260118
aF0.026904955105205724
aF0.04509197866023122
aF0.05053404385155696
aF0.13176354476739344
aF0.07804075689950796
aF0.13788524927250606
aF0.4013378108698269
aF0.2488239431124845
aF1.760821500874431
aF13.661486443144337
aF0.45330085515948826
aF225.55818181804813
aF0.8337044252197946
aF13751.508185155082
aF1.5441571068435977
aF3459365.9158289945
aF2.8843527254568313
aF5977760646.529275
aF5.389765917696962
aF600065957891188.2
aF10.098531416746217
asg13
(lp24
F0.002438626632602756
aF0.0026599962849541544
aF0.002336405428122855
aF0.0024066145400661676
aF0.00340104584652014
aF0.0029523265224781076
aF0.004796288320311165
aF0.0044996119543781864
aF0.0072687536168975185
aF0.008306650275122156
aF0.011665820377647795
aF0.01955160012220963
aF0.017765874791562993
aF0.040146705046315186
aF0.03383798443689603
aF0.0603247965567214
aF0.11601171095455934
aF0.10788850658392883
aF0.5089874650965153
aF4.0023886063899425
aF0.19654841766680936
aF66.96258522723303
aF0.36474568603366014
aF4136.195821316177
aF0.675568734244074
aF1054025.5524791467
aF1.250637314553548
aF1821348946.9893885
aF2.3369688158764172
aF182832596544971.4
aF4.378660106479805
asg15
(lp25
F0.015263267150906834
aF0.01649882161235836
aF0.014739288791127481
aF0.015301505886266113
aF0.02109523713416105
aF0.019267877061293806
aF0.029513711648668405
aF0.03018537085676521
aF0.04472789840005309
aF0.06012899643024309
aF0.07178502013218016
aF0.11982952068659473
aF0.15166492950986557
aF0.39948376141437947
aF0.2065579748404386
aF0.36495414680271365
aF1.2170852032633226
aF0.6580128754452705
aF5.339595748705555
aF41.42516451705328
aF1.1997950409395077
aF683.8946597277036
aF2.2066458150318247
aF41692.13909185934
aF4.087069367143829
aF10487754.455918787
aF7.627646901528762
aF18122394820.44504
aF14.253191344888393
aF1819219107422665.8
aF26.70548272099254
assS'low'
p26
(dp27
g3
(lp28
I1000
aI1172
aI853
aI621
aI1610
aI452
aI2212
aI329
aI3039
aI240
aI4175
aI5736
aI174
aI127
aI7880
aI10826
aI92
aI14874
aI67
aI49
aI20434
aI36
aI28072
aI26
aI38566
aI19
aI52983
aI14
aI72790
aI10
aI100000
asg5
(lp29
F0.006024855075709975
aF0.006485064371772677
aF0.0058119822339273005
aF0.0061246719865164865
aF0.008249283403394123
aF0.007923244463142945
aF0.01157505125120587
aF0.013245895682292164
aF0.017475343616861944
aF0.030108737034439767
aF0.028060988092914074
aF0.046937143436006856
aF0.10268012751909837
aF0.5414857967408949
aF0.08108782201782201
aF0.14314137709301045
aF3.3413826137026588
aF0.25762012209474067
aF16.69976078096132
aF87.64658015959539
aF0.46933621235329837
aF1102.086984453835
aF0.8632308057424493
aF56069.52136767957
aF1.5989105305401836
aF12962142.53272634
aF2.9830694511740306
aF22094681903.49206
aF5.57513849765636
aF2329282546306028.0
aF10.438999312383
asg7
(lp30
F0.0038089536774382907
aF0.004106286418980054
aF0.0036799076867680054
aF0.0038810866320621975
aF0.005222810564647998
aF0.00502095081245675
aF0.007322807428259834
aF0.00838401021767871
aF0.011076073127198919
aF0.019128003153188276
aF0.017752618590519017
aF0.02960484997675126
aF0.06561246263668119
aF0.3603613897947757
aF0.0512396977178939
aF0.09042753847915885
aF2.5585119482531535
aF0.16371512991825593
aF12.314262034656288
aF60.03956160424599
aF0.29732528459078367
aF755.9565221783399
aF0.5467477906198097
aF38416.14939950776
aF1.011811605997062
aF8884188.254836734
aF1.8834753187825315
aF15143673471.852486
aF3.5192879028190114
aF1596488586638241.0
aF6.593617630560243
asg9
(lp31
F0.010032780801813664
aF0.01082386372110632
aF0.00965364651022982
aF0.010181407166573224
aF0.013709130089908735
aF0.013171657716365458
aF0.019210209667608922
aF0.021994103707170275
aF0.029056299610124122
aF0.049976984512582465
aF0.04657114463187592
aF0.07797915399394678
aF0.16945289769541183
aF0.8177314636661995
aF0.1344191199865864
aF0.23818607219627913
aF4.730177900928708
aF0.42824242319465955
aF24.12337068686918
aF135.5739296200083
aF0.7799851443828767
aF1707.0078019320222
aF1.4343050406713718
aF86746.6078912394
aF2.6651110469012944
aF20061177.578202344
aF4.961072643268174
aF34195574653.62689
aF9.269801820257307
aF3604993514256818.5
aF17.36758412543873
asg11
(lp32
F0.006037722237920758
aF0.006482693841642822
aF0.005809559408364522
aF0.006127165482723747
aF0.008250147347781797
aF0.007926696676748063
aF0.011560693477029208
aF0.013236040027601462
aF0.017486064956256223
aF0.030076123192114848
aF0.02802648901397799
aF0.04692781172785339
aF0.10246826688012435
aF0.5414674440936909
aF0.08089335203410808
aF0.1433402467533416
aF3.334552522486649
aF0.2577160538605597
aF16.723878413114107
aF87.68837380317046
aF0.4693946292865099
aF1104.081980689064
aF0.8631639816453038
aF56107.16631855368
aF1.6038623599705752
aF12975444.853560802
aF2.985570783952496
aF22117484949.441177
aF5.578561629236328
aF2331687377739431.5
aF10.451802559897352
asg13
(lp33
F0.0026415034790903315
aF0.0028615015785376516
aF0.002564375832598402
aF0.002704569138858529
aF0.003609439464654536
aF0.0034988934549708244
aF0.005102962355094924
aF0.005842470793433458
aF0.007718458359597474
aF0.013393273608988645
aF0.012371067416326223
aF0.02053091763093586
aF0.045630400095055375
aF0.25169775721542664
aF0.03570683117130552
aF0.06271135795458695
aF2.123172113927046
aF0.11275077356399486
aF9.668492207581595
aF44.5292523219225
aF0.20719372308349848
aF560.6666308186653
aF0.3810059762731224
aF28491.920396140544
aF0.7016897824871267
aF6589093.089698844
aF1.3061872179792169
aF11231535325.888098
aF2.4406207127908934
aF1184059996508305.0
aF4.572663619955091
asg15
(lp34
F0.0160829035758449
aF0.017282322976171268
aF0.015475137419166
aF0.016321157273804822
aF0.021798434488521343
aF0.021285451801487602
aF0.03054551836605014
aF0.03554255997665521
aF0.04620146153291147
aF0.08076300882450332
aF0.07405123434940215
aF0.1229808031781254
aF0.2705042350052768
aF1.2288899495020336
aF0.21286378336344794
aF0.3756428713947909
aF6.822214013114586
aF0.6753804368936485
aF35.29630161812848
aF210.32684046283134
aF1.2301133167846137
aF2635.326359414327
aF2.262040172902407
aF134577.06315688597
aF4.2031425072703374
aF31122535.250348315
aF7.824099987436192
aF53050374207.334366
aF14.619390103836993
aF5592719434707714.0
aF27.390390044384755
ass.