(dp0
S'cscdt_2023'
p1
(dp2
S'high'
p3
(dp4
S'ctau'
p5
(lp6
I1000
aI1172
aI853
aI1610
aI621
aI2212
aI452
aI3039
aI329
aI240
aI4175
aI5736
aI174
aI127
aI7880
aI10826
aI92
aI14874
aI67
aI49
aI20434
aI36
aI28072
aI26
aI38566
aI19
aI52983
aI14
aI72790
aI10
aI100000
asS'limit'
p7
(lp8
F0.06115445047083809
aF0.0713493131012048
aF0.053460921327633484
aF0.10243566959447643
aF0.04372740145098642
aF0.15632113970911773
aF0.03973891473853856
aF0.2506850654729226
aF0.041140984154564395
aF0.050213047737386954
aF0.41821193376086824
aF0.7196521400670023
aF0.07706765533079704
aF0.15813768857725008
aF1.26786192284311
aF2.2742904830933823
aF0.49965982036681933
aF4.135038509425639
aF2.677267807183598
aF28.82536262893888
aF7.592364728324869
aF788.6599311578434
aF14.043043738225142
aF111838.17370490456
aF26.116834460821067
aF95968659.57577844
aF48.764974691303664
aF900867870019.6981
aF91.3200276388818
aF1.227620110634333e+18
aF171.36984592424142
asS'16.0'
p9
(lp10
F0.0313226284409831
aF0.03644682961151084
aF0.027321072773123907
aF0.05226621676476855
aF0.022347324376468223
aF0.07998762356389985
aF0.020316705823248044
aF0.1279393434546468
aF0.021092670986705975
aF0.025624002583648636
aF0.2137847978461988
aF0.36831877506960264
aF0.03936338737143946
aF0.08083775251763382
aF0.6533793830092279
aF1.166483747261521
aF0.25522447661748116
aF2.1103941433395064
aF1.3796249282179447
aF14.73916777883472
aF3.876232095531289
aF402.55130092698903
aF7.171372263844583
aF57126.892804928524
aF13.339527817111545
aF49024413.88443752
aF24.910664908821172
aF460203021115.2783
aF46.653597782092035
aF6.271264065942482e+17
aF87.55562082024385
asS'84.0'
p11
(lp12
F0.12134751769138008
aF0.1411992730724926
aF0.10584502408317299
aF0.20330046162167206
aF0.08657614738879589
aF0.30988139685361116
aF0.0787092925316137
aF0.49764704663036863
aF0.0816011166618115
aF0.09966995845363057
aF0.828227291060921
aF1.4269099786142612
aF0.15249836487720952
aF0.3131748910390562
aF2.5141421583272896
aF4.512770035035635
aF0.9887694645863351
aF8.208822560369763
aF5.308666545517683
aF57.101258608711625
aF15.077421236904808
aF1565.8080989374432
aF27.782734664192585
aF221316.24606559952
aF51.67889049030378
aF189926297.64617464
aF96.50682854098042
aF1782880182352.4746
aF180.7414927885714
aF2.4295608478127084e+18
aF339.2007125151533
asS'50.0'
p13
(lp14
F0.06126909555600134
aF0.07129236584945006
aF0.05344179277875622
aF0.10223611455037822
aF0.0437128178825281
aF0.1564609866846866
aF0.03974079610889397
aF0.2502576651338268
aF0.041035720649075666
aF0.050122213267729136
aF0.4181769493686868
aF0.7204554454083536
aF0.07699734225091502
aF0.1581238941319141
aF1.2643165006759407
aF2.26939021731672
aF0.4992356524475658
aF4.12806800913019
aF2.6696320803026814
aF28.830769447042506
aF7.582161730322903
aF787.4164893013118
aF14.027669910557504
aF111743.91257353737
aF26.09298277883901
aF95894937.56955877
aF48.72687844629013
aF900186998322.9131
aF91.2574672948658
aF1.2266999815711752e+18
aF171.26448084036238
asS'2.5'
p15
(lp16
F0.017710597934156636
aF0.020607949503356655
aF0.01544801822510922
aF0.029552626862218705
aF0.012635736419168278
aF0.04522700396354222
aF0.011487573875227164
aF0.0723401063277468
aF0.011861888000123434
aF0.014488452272702953
aF0.12087927442688604
aF0.2082566521883522
aF0.02225704424440512
aF0.04570768814750642
aF0.3654664884766391
aF0.6559956096931144
aF0.14431030578562448
aF1.1932696588891956
aF0.7716905232124939
aF8.333894293285725
aF2.191718625171464
aF227.61257893866045
aF4.054873333520528
aF32300.974728288144
aF7.542502834508151
aF27719630.391200583
aF14.08511330088074
aF260210304202.71707
aF26.379111639922147
aF3.5459296342291776e+17
aF49.50613899291725
asS'97.5'
p17
(lp18
F0.18580284053908694
aF0.21619912554629017
aF0.1620659944738087
aF0.31004457302513855
aF0.13256219859622298
aF0.4744789560172661
aF0.12051676699850088
aF0.7589395992637644
aF0.12444626843069634
aF0.15200226310140189
aF1.2681511134025483
aF2.1848319871070023
aF0.23349986272394563
aF0.4795218566807838
aF3.8342075391275636
aF6.88222693906639
aF1.5139672982472472
aF12.518913954042555
aF8.096013462507194
aF87.4313361327004
aF22.99391145630548
aF2387.945042784847
aF42.5398975635489
aF338871.2955257957
aF79.12880910491444
aF290808161.09044343
aF147.7676927753071
aF2729880557353.9824
aF276.7447006798165
aF3.7200542061110564e+18
aF519.371607521227
assS'comb'
p19
(dp20
g5
(lp21
I1000
aI1172
aI853
aI1610
aI621
aI2212
aI452
aI3039
aI329
aI240
aI4175
aI5736
aI174
aI127
aI7880
aI10826
aI92
aI14874
aI67
aI49
aI20434
aI36
aI28072
aI26
aI38566
aI19
aI52983
aI14
aI72790
aI10
aI100000
asg7
(lp22
F0.017889104793771794
aF0.01963885199520896
aF0.01679004555069852
aF0.025671745946367786
aF0.016405686476136563
aF0.03665805029341918
aF0.018776025722297505
aF0.0561244947598534
aF0.025297231439100877
aF0.03997305118212999
aF0.09038644449535446
aF0.15203204121668323
aF0.07297946467024967
aF0.15759741103579955
aF0.2635658441915031
aF0.46740091994411515
aF0.49849403752150445
aF0.8428863661761762
aF2.67295297521104
aF28.831350786355795
aF1.538567441641363
aI1
aF2.83376846388364
aI1
aF5.254090696288506
aI1
aF11.389461989991057
aI1
aF21.288323113429023
aI1
aF39.89468659902902
asg9
(lp23
F0.011049641390411718
aF0.012163079999266177
aF0.010317293958032579
aF0.015922100960811456
aF0.01002060305489527
aF0.022807257160783485
aF0.011231112196542511
aF0.03491602316730111
aF0.014663172751231822
aF0.022083999484094844
aF0.056582040247455584
aF0.095198782981453
aF0.03829856212476729
aF0.08127567636941892
aF0.1646387672784696
aF0.29266506768418044
aF0.2556102453542346
aF0.5269663470175547
aF1.3668195655814201
aF14.722988046601545
aF0.9641236146851349
aI1
aF1.771713190605981
aI1
aF3.288352029401398
aI1
aF7.293264243648488
aI1
aF13.633338137155176
aI1
aF25.538008401969464
asg11
(lp24
F0.030018597686786552
aF0.03290849690810706
aF0.02841195376328382
aF0.04307892395667545
aF0.02782411911463044
aF0.061164343858005205
aF0.03230922882126275
aF0.09319046362465118
aF0.04445954238799329
aF0.07261704880830631
aF0.15040490080446484
aF0.2530549154999452
aF0.13987141095171773
aF0.3114873432174788
aF0.4397380891322836
aF0.7779546233564553
aF0.9902639803081913
aF1.4007681497164168
aF5.295218373044343
aF57.03857385964054
aF2.5628081472602804
aI1
aF4.709521611475494
aI1
aF8.741011245982076
aI1
aF18.58071821217308
aI1
aF34.70069588921108
aI1
aF65.00144383257977
asg13
(lp25
F0.01789348401685254
aF0.019616094370309776
aF0.016776354129456706
aF0.02567848234490943
aF0.016429256524707708
aF0.03663292008453278
aF0.018724996665121858
aF0.05608196888123733
aF0.025299223078789193
aF0.039874834422240456
aF0.09051358596117089
aF0.15228830895998105
aF0.07297169925016714
aF0.1572718414593787
aF0.26337058807756747
aF0.4681726683204074
aF0.4999902411513586
aF0.8429815104018371
aF2.6735878417485655
aF28.799120839961763
aF1.542296553700571
aI1
aF2.8341875527131806
aI1
aF5.260335837698936
aI1
aF11.345154651596186
aI1
aF21.291450961695777
aI1
aF39.8832074785881
asg15
(lp26
F0.007339124303787175
aF0.008122289075206393
aF0.006815393865091787
aF0.01063249659593906
aF0.006546031896563226
aF0.01531141581658206
aF0.007168162785866961
aF0.023440510430829665
aF0.009091908293939866
aF0.01308393004479765
aF0.03818541907736897
aF0.064246630342492
aF0.02166347321489337
aF0.04546139167185166
aF0.11110946684522377
aF0.19751034444767185
aF0.1445284290828146
aF0.35563282470077506
aF0.7728339855054448
aF8.324745867801447
aF0.6506563585924284
aI1
aF1.195672873800873
aI1
aF2.2192041815292387
aI1
aF5.096456191146724
aI1
aF9.48134925638015
aI1
aF17.76049083030876
asg17
(lp27
F0.0488849607950322
aF0.053591127279599325
aF0.046246730400325356
aF0.06960659853756643
aF0.0456357547630513
aF0.09844517619910924
aF0.05309142596678326
aF0.1499918771653598
aF0.07414070298601277
aF0.1208735804575439
aF0.24110437575402202
aF0.4056559915125827
aF0.22125545566753613
aF0.4769379316485636
aF0.6993027321137072
aF1.2369998786446101
aF1.5162555674676446
aF2.2273150976637495
aF8.107843480349707
aF87.33536360731806
aF4.075036421063671
aI1
aF7.488454456907113
aI1
aF13.898793076926893
aI1
aF28.40525832871918
aI1
aF52.773738794596895
aI1
aF98.85592003815619
assS'low'
p28
(dp29
g5
(lp30
I1000
aI1172
aI853
aI1610
aI621
aI2212
aI452
aI3039
aI329
aI240
aI4175
aI5736
aI174
aI127
aI7880
aI10826
aI92
aI14874
aI67
aI49
aI20434
aI36
aI28072
aI26
aI38566
aI19
aI52983
aI14
aI72790
aI10
aI100000
asg7
(lp31
F0.022539110595044192
aF0.02217885785737371
aF0.021558663671700954
aF0.031037038661456195
aF0.022416834630559893
aF0.04379403468242064
aF0.028455460429516025
aF0.06635605355653264
aF0.04672765139488263
aF0.10729274039288653
aF0.10647873270084109
aF0.1781395070348667
aF0.37576508179068363
aF1.4855693467042161
aF0.30782057293137904
aF0.5446345349971886
aF7.261561582552273
aF0.980577942698776
aF44.26356337790249
aF497.39735007969676
aF1.7878413251171348
aF15922.341218821855
aF3.300651197367039
aF2794582.938936956
aF6.116392625507066
aF3142432913.0635324
aF11.390715528201936
aF42795694437286.13
aF21.290659287919397
aF1.0569377316354341e+20
aF39.899055276226576
asg9
(lp32
F0.014401668331485177
aF0.015584753382981063
aF0.013788998661986228
aF0.01990477183869308
aF0.01436757427130618
aF0.0279759615354729
aF0.01822863854300201
aF0.042508600766939686
aF0.029942233860410523
aF0.06883896791973318
aF0.06820698126336841
aF0.11391877479995455
aF0.26323051527117364
aF1.2067936440932994
aF0.19768941002128274
aF0.34835423518656533
aF5.924899835834561
aF0.6283137996103492
aF32.18818881400897
aF361.06570988477347
aF1.1485124686220691
aF11595.355507498169
aF2.1101359299019515
aF2029748.5918251865
aF3.9053608748548165
aF2286956582.7133255
aF7.266391672266253
aF31025212070693.805
aF13.626380676316748
aF7.663522441645718e+19
aF25.54466810495548
asg11
(lp33
F0.03665631165786559
aF0.039667597949246756
aF0.0352685693176838
aF0.050663267362951396
aF0.03656953353813448
aF0.07120672286743493
aF0.04639703403219517
aF0.1081963904321142
aF0.07621144005858706
aF0.17281688232605397
aF0.1736060206068525
aF0.29137376909777596
aF0.5240991422324828
aF1.953901381863608
aF0.5031753818843728
aF0.89099694353932
aF9.505704550216592
aF1.5992360578561053
aF62.13758705452382
aF714.845959761729
aF2.923288546056661
aF22861.442118247858
aF5.3708917952851785
aF4018541.603737792
aF9.94024621028092
aF4521500612.842201
aF18.585486547440098
aF61594620266276.086
aF34.71531163687437
aF1.521445699129099e+20
aF65.01839288608274
asg13
(lp34
F0.02249136726175323
aF0.024339014338648532
aF0.021534549049469297
aF0.031085671700042644
aF0.02243812190077976
aF0.04369060659586198
aF0.028468021531650456
aF0.06638651367510627
aF0.046761372564004006
aF0.10708356519315532
aF0.10652017739195768
aF0.17790917989919505
aF0.3747301035887487
aF1.490490902327437
aF0.3087354202448476
aF0.5440316260887128
aF7.273334500454309
aF0.9812499564213097
aF44.30202331390481
aF496.9506544650646
aF1.7936543976650443
aF15937.108731584245
aF3.2954405753039344
aF2793632.470469074
aF6.099078502871158
aF3143282299.498773
aF11.348066071719597
aF42701367151062.44
aF21.196735912724765
aF1.054764379065217e+20
aF39.89360806706611
asg15
(lp35
F0.010015686983749486
aF0.010838467322679424
aF0.009589603873591795
aF0.01384283817892524
aF0.009991976158940987
aF0.019455973249719784
aF0.012677165838313093
aF0.02956274437094576
aF0.020823423719908033
aF0.048103945301612744
aF0.04743476649485616
aF0.07922518167386029
aF0.18443747286008724
aF1.0421791856117626
aF0.1374837418277837
aF0.24226408349262993
aF5.142474783524336
aF0.43696287121886446
aF24.919888114071455
aF279.5347431365988
aF0.798736723960215
aF8902.369330533387
aF1.4675008811900332
aF1571418.264638854
aF2.715995895809812
aF1755817846.985643
aF5.0534356725626335
aF24019519022472.62
aF9.521971210794328
aF5.933049632241846e+19
aF17.765122342365377
asg17
(lp36
F0.05822731483285868
aF0.06247401931157051
aF0.055805223971021264
aF0.07944883203043263
aF0.05808947095358752
aF0.11118291580982535
aF0.07370012472398846
aF0.16747529014987544
aF0.12054381244895497
aF0.25757790605137204
aF0.26872170137766366
aF0.4473875693140736
aF0.7284312966788357
aF2.6388058689396168
aF0.7720493817379515
aF1.3621108296201934
aF12.806355916472217
aF2.4537949187563664
aF86.80289959040358
aF1029.0144722803493
aF4.465587935191167
aF32961.82636748466
aF8.240851486172451
aF5784655.537226186
aF15.251860561931894
aF6508660744.547061
aF28.41254491636455
aF88522955400655.2
aF53.070999709939926
aF2.1866011866991673e+20
aF98.88169640365568
asssS'csccsc_2022'
p37
(dp38
g3
(dp39
g5
(lp40
I1000
aI1172
aI853
aI1610
aI621
aI2212
aI452
aI3039
aI329
aI240
aI4175
aI5736
aI174
aI127
aI7880
aI10826
aI92
aI14874
aI67
aI49
aI20434
aI36
aI28072
aI26
aI38566
aI19
aI52983
aI14
aI72790
aI10
aI100000
asg7
(lp41
F0.41052616980495577
aF0.49017228189109474
aF0.3464743060406936
aF0.7184807112529689
aF0.25236303540911204
aF1.0974214160925746
aF0.18998488895909885
aF1.7468230948986627
aF0.15078390300432462
aF0.13045500270474783
aF2.8859975800273667
aF4.920316833873113
aF0.12828555593165386
aF0.15137527885041743
aF8.60042675732347
aF15.330555091228304
aF0.23083410393753734
aF27.738000205291943
aF0.48370421574550604
aF1.5088211098407398
aF50.742360438492504
aF7.79134713825679
aF93.59529880822305
aF95.16651751180599
aF173.70844512521273
aF3055.690471438874
aF323.85463410438456
aF364591.12312997767
aF605.7965069357097
aF664064166.9429967
aF1135.9010140937116
asg9
(lp42
F0.20971101273160483
aF0.2503960120789917
aF0.17699199353220452
aF0.3670256725831243
aF0.12891602103178343
aF0.560602126382451
aF0.09705091660858496
aF0.8923420726260441
aF0.07702532595199321
aF0.06664099968557907
aF1.4742725981483973
aF2.5134640313982475
aF0.06553311856527985
aF0.07732804170511974
aF4.393422118226037
aF7.8314342295277095
aF0.11791781700684967
aF14.169619875004852
aF0.24709186760144095
aF0.770763262975022
aF25.92095875926917
aF3.980099395078474
aF47.81168558698286
aF48.614577938613955
aF88.73637873175694
aF1560.958461500847
aF165.4364105030824
aF186247.83034078532
aF309.4606328432802
aF339229355.860352
aF580.2555816183072
asg11
(lp43
F0.8124449242296227
aF0.9700633572414074
aF0.6856876274712239
aF1.4219002658375117
aF0.4994357023739038
aF2.1718380268120043
aF0.3759865710600054
aF3.4570372730469
aF0.2984050970509574
aF0.25817500585641406
aF5.711504005893213
aF9.737452830656615
aF0.2538829451719859
aF0.29957785318764524
aF17.020629739264844
aF30.339889671702615
aF0.45682737713952465
aF54.894760154748575
aF0.9572627161365785
aF2.9860267833819183
aF100.4208176805959
aF15.419369299405282
aF185.2280467679642
aF188.33854538836954
aF343.77508150895704
aF6047.335151648519
aF640.9199509613611
aF721545.8188779545
aF1198.886587440142
aF1314214092.6626303
aF2247.977804794866
asg13
(lp44
F0.41020836110250875
aF0.48979086221372975
aF0.3462078345309979
aF0.7179260529610684
aF0.25216810990744265
aF1.0965741688932755
aF0.18983789609778606
aF1.745479049415605
aF0.15066654016206504
aF0.13035412354925113
aF2.88377295225207
aF4.91649888854213
aF0.12818703612387117
aF0.15125867183580252
aF8.593819004896776
aF15.318793984787726
aF0.2306549085291577
aF27.716696756456482
aF0.4833277410198195
aF1.5076630015022396
aF50.7030788337949
aF7.78533291415541
aF93.52276225610402
aF95.09327184172052
aF173.5741200025198
aF3053.3361309968814
aF323.60436362016503
aF364312.8524717558
aF605.3250965263016
aF663554652.1509082
aF1135.0176037767842
asg15
(lp45
F0.11857585438119393
aF0.14158017110865626
aF0.10007570216911658
aF0.2075254996840588
aF0.07289234427012015
aF0.3169784706957125
aF0.05487501684076628
aF0.5045525377216983
aF0.04355204676559692
aF0.03768048883845541
aF0.833590619010364
aF1.4211754599692097
aF0.037054065129556515
aF0.04372320982753666
aF2.4841508061029742
aF4.428088886227702
aF0.06667368449670966
aF8.011857656163201
aF0.13971192513854158
aF0.43580883637174117
aF14.656358725393838
aF2.250447795498048
aF27.033923464655068
aF27.48789889174734
aF50.17376906322838
aF882.604975366286
aF93.54188635895396
aF105309.18391761693
aF174.97678571463408
aF191808766.6373719
aF328.0910260917267
asg17
(lp46
F1.2439857846470261
aF1.4853253317565394
aF1.0498996742349855
aF2.177161386742527
aF0.7647175772406486
aF3.3254385021505586
aF0.5756968080763499
aF5.2932883158117985
aF0.45690690867396094
aF0.3953080727793065
aF8.745244853394635
aF14.909629611501135
aF0.38873622732980256
aF0.45870258973416395
aF26.06136220429092
aF46.455323104080335
aF0.6994772768603558
aF84.05283761095266
aF1.465725460929757
aF4.572094378735431
aF153.7606623559693
aF23.609571116308256
aF283.61437215669986
aF288.3770532339649
aF526.3757600781656
aF9259.457151240502
aF981.3530546068887
aF1104804.417981674
aF1835.6910452652473
aF2012276279.2878718
aF3442.0209296260864
assg19
(dp47
g5
(lp48
I1000
aI1172
aI853
aI1610
aI621
aI2212
aI452
aI3039
aI329
aI240
aI4175
aI5736
aI174
aI127
aI7880
aI10826
aI92
aI14874
aI67
aI49
aI20434
aI36
aI28072
aI26
aI38566
aI19
aI52983
aI14
aI72790
aI10
aI100000
asg7
(lp49
F0.0033084796700120402
aF0.003868781366341495
aF0.002888477525294472
aF0.0055893485519970375
aF0.0023601029925267958
aF0.008587449213928079
aF0.002152456650457914
aF0.013853518938912582
aF0.0022163215476967315
aF0.002595112487276487
aF0.023221278944265056
aF0.04010074684451918
aF0.0035103964054893104
aF0.005533261606610028
aF0.07083082846997994
aF0.12729288699341035
aF0.010858632697955114
aF0.23174258414318014
aF0.02769520161420941
aF0.09862667940380403
aF0.4289360994305321
aF0.5205649966822344
aF0.7939475010569692
aF5.3009157320083204
aF1.4773306476745862
aI1
aF2.759488618044337
aI1
aF5.168977471266944
aI1
aF9.701943400422191
asg9
(lp50
F0.0016910384050506063
aF0.001975146124564968
aF0.001480614305355718
aF0.00285759838744618
aF0.0012093946233149749
aF0.0043804493438028
aF0.0010996353152072866
aF0.007079599054488537
aF0.0011349976997868326
aF0.0013275058249415865
aF0.011855297794753427
aF0.020476813278224065
aF0.001798218214374309
aF0.0028373538367759067
aF0.0364830296490959
aF0.0650269331748345
aF0.005573905702189898
aF0.11838830774899312
aF0.014167450049708007
aF0.05050374075298186
aF0.21929602985150243
aF0.26721760316315707
aF0.40648776786585056
aF2.717946450407523
aF0.7578340610555583
aI1
aF1.4139326995136028
aI1
aF2.646299447805633
aI1
aF4.963912803697484
asg11
(lp51
F0.006551280130306238
aF0.007651946943854369
aF0.005728045329997975
aF0.011070670393621213
aF0.0046853361343755515
aF0.017038680729714973
aF0.004277263281994619
aF0.027427194749585455
aF0.004397113608463287
aF0.005142912503888686
aF0.046113678377221475
aF0.0793295659251692
aF0.006966507502958035
aF0.01099223993259634
aF0.14038325901218218
aF0.25192193830273146
aF0.02156374262337657
aF0.45865010921661603
aF0.05488635578392649
aF0.19565738386802006
aF0.8529981127340889
aF1.0337834940965107
aF1.5747811133245766
aF10.529642501287507
aF2.9359375207619505
aI1
aF5.477740151389005
aI1
aF10.252072636010222
aI1
aF19.230777025074445
asg13
(lp52
F0.0033077809489433065
aF0.0038635141003906916
aF0.0028805301643351046
aF0.005589648039627294
aF0.0023656544303238478
aF0.008568443415576062
aF0.002150958095075953
aF0.013848155552619411
aF0.00222012921601092
aF0.0025966876117291013
aF0.023189732458123228
aF0.040053976689401034
aF0.0035174316170378077
aF0.005550048383683913
aF0.07059619201261218
aF0.12719690462470015
aF0.010844014845891977
aF0.23157521897797317
aF0.027712452437251192
aF0.09878859700296738
aF0.42895727711163034
aF0.5198709505699893
aF0.7951164742972894
aF5.316479780739835
aF1.4823726428288284
aI1
aF2.7657441915987184
aI1
aF5.176333590359061
aI1
aF9.709735837605013
asg15
(lp53
F0.0009561554305539244
aF0.0011167970446441843
aF0.0008326532506281162
aF0.0016157576364547645
aF0.0006838219837654873
aF0.002476815674814955
aF0.0006217613243578926
aF0.004002982464429049
aF0.0006417561015031566
aF0.0007506050127654433
aF0.006703282038676246
aF0.011578102636779986
aF0.0010167575767999913
aF0.0016043108609086311
aF0.020406711753645706
aF0.03676785524307739
aF0.0031345980413906497
aF0.06693971173582038
aF0.008010630782642922
aF0.02855607882117026
aF0.12399546291508065
aF0.15027519664913755
aF0.2298383558515602
aF1.5367949366201084
aF0.4284983420677082
aI1
aF0.7994729303840046
aI1
aF1.496283928463166
aI1
aF2.806720515557699
asg17
(lp54
F0.01003107898000029
aF0.011716378388865117
aF0.008735590171221897
aF0.016951001157184276
aF0.007174013624291623
aF0.025984941823516145
aF0.006523065971244296
aF0.04199550602646426
aF0.006732698396761104
aF0.007874637994532885
aF0.07032593992748913
aF0.12146650649415604
aF0.010666858926615487
aF0.01683091268836747
aF0.21409231787064903
aF0.3857335781701028
aF0.03288591506728491
aF0.7022681413752635
aF0.0840399616523861
aF0.29958338835720066
aF1.3008698573385173
aF1.5765776149378314
aF2.4112467190957054
aF16.12259959874997
aF4.495399577834094
aI1
aF8.387314304170985
aI1
aF15.697596653175381
aI1
aF29.445458668175366
assg28
(dp55
g5
(lp56
I1000
aI1172
aI853
aI1610
aI621
aI2212
aI452
aI3039
aI329
aI240
aI4175
aI5736
aI174
aI127
aI7880
aI10826
aI92
aI14874
aI67
aI49
aI20434
aI36
aI28072
aI26
aI38566
aI19
aI52983
aI14
aI72790
aI10
aI100000
asg7
(lp57
F0.0033353266000666223
aF0.0038995368544254934
aF0.002912725988613499
aF0.00563316132412581
aF0.0023824481275274765
aF0.008655144397875101
aF0.002177178578111843
aF0.013964261730452636
aF0.0022494464208193477
aF0.002647854406479589
aF0.02340934544044333
aF0.04042984045862884
aF0.0036093042974975225
aF0.005743424888472319
aF0.07141868136213901
aF0.12835547345156628
aF0.011395325752682449
aF0.2333785231981382
aF0.02937938435755404
aF0.10553376878455954
aF0.428940455004354
aF0.5578973196337514
aF0.7939555927064949
aF5.301194842574501
aF1.47734574494213
aF85.64041889482414
aF2.759516874189762
aF3204.339042713354
aF5.169030476876467
aF889349.931234147
aF9.702042995624621
asg9
(lp58
F0.0017015092310880711
aF0.0019945053452456356
aF0.0014877108831351175
aF0.0028744246613009367
aF0.001218249697412831
aF0.004422343472818278
aF0.0011138273301977552
aF0.007147200872876088
aF0.0011529736525756958
aF0.0013546186907162174
aF0.01196863019669622
aF0.020672747396767915
aF0.0018469532070832856
aF0.0029378418674063708
aF0.03656649586410932
aF0.06612867545135404
aF0.005879944071255435
aF0.11952296842907276
aF0.015056213777143218
aF0.05402658473118571
aF0.22026811779922514
aF0.2856753090803156
aF0.4060971672272677
aF2.710834172185904
aF0.7571290258859082
aF43.876666170666205
aF1.4126236854709757
aF1638.7551743119122
aF2.6438582203525094
aF454973.28798717796
aF4.959345424002694
asg11
(lp59
F0.006618378910532659
aF0.007726946291728701
aF0.0057635659846447754
aF0.011180680943195213
aF0.00473863899006284
aF0.01713267430699332
aF0.004315097172191982
aF0.027689090234329278
aF0.004466754493569918
aF0.005247950845141627
aF0.04636786903548699
aF0.0800886410885149
aF0.007155312468846637
aF0.01138154214766222
aF0.14166287821474952
aF0.2544568974412319
aF0.022625470250363353
aF0.46304593706415387
aF0.05832953164758407
aF0.20930529751029767
aF0.8521502540640655
aF1.1067394758383788
aF1.5732679157784488
aF10.502088372171894
aF2.9332061959538063
aF169.98332628210136
aF5.4726689971055915
aF6348.728852724993
aF10.24261525845924
aF1762619.662027037
aF19.290418937065656
asg13
(lp60
F0.0033282625647262365
aF0.003901381993374462
aF0.002910059110468692
aF0.005622561324111097
aF0.0023829755303739044
aF0.008650391052847978
aF0.0021787185981327626
aF0.013980389099952462
aF0.002255291347158572
aF0.0026497221380962876
aF0.023411417996975988
aF0.04043723655069789
aF0.003612760427990992
aF0.005746609498040351
aF0.0715264408115529
aF0.12796175960729708
aF0.011377938309135355
aF0.23379468896154823
aF0.029450932011069065
aF0.10567950862413404
aF0.4285308842869447
aF0.5587994584493661
aF0.7943524340796985
aF5.302567702613879
aF1.4809935482467431
aF85.82560870823724
aF2.7631836751141914
aF3205.511553954915
aF5.171558390909206
aF889957.3006664187
aF9.700801746282252
asg15
(lp61
F0.0009620758976161778
aF0.0011277432324598054
aF0.0008411889616198563
aF0.001625271632750864
aF0.0006888288642487067
aF0.0025005036637138684
aF0.0006297858447727516
aF0.004041206224205008
aF0.0006519201550380248
aF0.0007659353055434582
aF0.006767363014750872
aF0.011688888690436109
aF0.001044313561216146
aF0.001661129308027289
aF0.020675611797089512
aF0.03698894613648431
aF0.0032889352924844384
aF0.06758127727794754
aF0.008513160034449652
aF0.030547982961663746
aF0.12387220873919494
aF0.1615279684580199
aF0.22961750047616283
aF1.5327734765368244
aF0.4280996975400742
aF24.80896501722483
aF0.798732781087696
aF926.5931835650927
aF1.4949035973721925
aF257253.28222388666
aF2.8041380047847135
asg17
(lp62
F0.01009339788361491
aF0.01183121576526152
aF0.008824959214556852
aF0.017051163809271023
aF0.00722668930071906
aF0.026232919995751544
aF0.006607117500179266
aF0.04239651469777129
aF0.006839329697273516
aF0.008035469164708028
aF0.0709967727537171
aF0.1226287722503891
aF0.010955950579776627
aF0.017426998633626588
aF0.2169089729771198
aF0.3880610311518912
aF0.03450510799344239
aF0.7089988586906106
aF0.08931202400573666
aF0.3204805662937979
aF1.2995767928608466
aF1.6945987479470035
aF2.4089297589554137
aF16.080409739491422
aF4.491217145799567
aF260.27221184349327
aF8.379548927379068
aF9720.939465274254
aF15.683114719339308
aF2698858.1618185285
aF29.418968408062195
asssS'csccsc_2023'
p63
(dp64
g3
(dp65
g5
(lp66
I1000
aI1172
aI853
aI1610
aI621
aI2212
aI452
aI3039
aI329
aI240
aI4175
aI5736
aI174
aI127
aI7880
aI10826
aI92
aI14874
aI67
aI49
aI20434
aI36
aI28072
aI26
aI38566
aI19
aI52983
aI14
aI72790
aI10
aI100000
asg7
(lp67
F1.8683424294621511
aF2.0287412118535673
aF1.7423987066263
aF2.5316285708906157
aF1.4896476136030374
aF3.410576230449109
aF1.233339994910349
aF4.973319803476972
aF1.273845235441001
aF1.7457537585594254
aF7.720172144711596
aF12.599836485904973
aF3.4810645623952765
aF11.17038539631078
aF21.39632384662568
aF37.244097655252396
aF73.56549091043455
aF66.33173505042289
aF1198.796445861435
aF65741.78371798235
aF120.02915721061457
aF17902537.161376704
aF219.88411035067512
aF77375564841.02646
aF404.9062975195366
aF6503252359511939.0
aF751.6787292018507
aF2.76575995987061e+22
aF1402.695338372019
aF4.2495144214957865e+32
aF2628.712642983279
asg9
(lp68
F1.3025147515181459
aF1.4360215138541232
aF1.1843077105585365
aF1.811728134957864
aF0.8949267122248149
aF2.4571804237262898
aF0.7344308525308849
aF3.578690715626664
aF0.7586242645659191
aF1.0372753864355215
aF5.5696331468201326
aF9.064314354018562
aF2.0726129083924256
aF6.65588773577058
aF15.333615887101855
aF26.68515974380185
aF43.83463091605204
aF47.504734536555574
aF714.3131297537276
aF39172.80681166807
aF85.84905926989752
aF10667378.851323646
aF157.37527625713105
aF46104893398.26688
aF290.5371918870297
aF3875018943522840.5
aF539.5972992654631
aF1.6480014501810759e+22
aF1001.7635730636788
aF2.532109899512167e+32
aF1874.6002776439423
asg11
(lp69
F2.870829940642702
aF3.0953599344422207
aF2.707840243486627
aF3.8242792144862965
aF2.4763079826657046
aF5.15457114946744
aF2.1876026103928847
aF7.5072289106316745
aF2.25966589147813
aF3.089666355158205
aF11.660150334061772
aF19.014742680065762
aF6.173560972759743
aF19.82547179853974
aF32.33647098849879
aF56.32826458581289
aF130.5674424697873
aF100.19000437970305
aF2127.6793376713463
aF116681.56188101006
aF181.69244048088424
aF31774246.648523375
aF332.67444384878866
aF137329729726.30788
aF614.164442008576
aF1.154227382333171e+16
aF1137.6480777096363
aF4.908797679823681e+22
aF2122.1724075120787
aF7.542235595980926e+32
aF3971.221445159869
asg13
(lp70
F1.871308460967494
aF2.033515685651336
aF1.7424297350746283
aF2.5322772362352537
aF1.4902408022249585
aF3.422173075682721
aF1.23363902889748
aF4.984126885823467
aF1.2742772145425485
aF1.742333394644206
aF7.720862126872075
aF12.624084187031631
aF3.4814117173571355
aF11.180035335540824
aF21.355488158303025
aF37.298213380178254
aF73.62995621576754
aF66.51718405665554
aF1199.8468646591218
aF65799.39171646193
aF119.99240633663206
aF17918221.76543845
aF219.70318048711954
aF77443364100.5951
aF405.60338717425816
aF6508951237510582.0
aF753.3028417830051
aF2.768182874694151e+22
aF1405.2135600235713
aF4.253238527128085e+32
aF2629.5762798731466
asg15
(lp71
F0.9941326198889812
aF1.1120788905905743
aF0.8712148675373141
aF1.4342976533363743
aF0.5937678196365069
aF1.951708082225302
aF0.48189024566307803
aF2.842509864571196
aF0.497764536930683
aF0.680598982282893
aF4.40330418173173
aF7.1996730129164765
aF1.359926452092631
aF4.367201302945634
aF12.179301840282195
aF21.12594117236659
aF28.761701646784196
aF37.5458324069794
aF468.69018150746945
aF25702.887389242944
aF67.96444890160801
aF6999305.377124393
aF123.58303902400475
aF30251314101.794956
aF228.15190528552023
aF2542559077152571.0
aF423.7328485029403
aF1.0813214354274026e+22
aF790.4326275132589
aF1.6614212996594083e+32
aF1479.1366574286449
asg17
(lp72
F4.434796558052693
aF4.772190741488277
aF4.225789854578018
aF5.8682665799018885
aF3.969609532749621
aF7.8830234895340485
aF3.739099403679612
aF11.481005912573915
aF3.862271964860876
aF5.280927385621476
aF17.84606325136238
aF29.155431049613476
aF10.551988883328722
aF33.886141069636416
aF49.52917075724655
aF86.43439823135365
aF223.1688012064728
aF154.02074654265402
aF3636.677246318663
aF199434.74265347086
aF278.2949153630521
aF54309255.04595511
aF509.55122815959714
aF234727054258.72748
aF940.7041974635981
aF1.9728313304029336e+16
aF1745.6942936411813
aF8.390227095279572e+22
aF3256.42378737632
aF1.289135824776022e+33
aF6093.746169340842
assg19
(dp73
g5
(lp74
I1000
aI1172
aI853
aI1610
aI621
aI2212
aI452
aI3039
aI329
aI240
aI4175
aI5736
aI174
aI127
aI7880
aI10826
aI92
aI14874
aI67
aI49
aI20434
aI36
aI28072
aI26
aI38566
aI19
aI52983
aI14
aI72790
aI10
aI100000
asg7
(lp75
F0.01347156293056543
aF0.0158761885461275
aF0.011672094825395688
aF0.02329218335081866
aF0.009410718163681778
aF0.03631919639424817
aF0.00844932716851509
aF0.0594238603728214
aF0.008591120847019835
aF0.00994154099602571
aF0.10085373120127276
aF0.17598099795533567
aF0.013334830926046218
aF0.020938063355610263
aF0.3134446807168175
aF0.5669958613826973
aF0.041041413366093335
aF1.0374578849455665
aF0.10428179366348865
aF0.37492059115693466
aF1.9139993731682232
aF2.140367436577166
aF3.55269408281496
aF27.90701735143378
aF6.624426171569228
aI1
aF12.392746758927982
aI1
aF23.239979903361952
aI1
aF43.656678574103665
asg9
(lp76
F0.00916154258110063
aF0.010772634144056836
aF0.007934637353621208
aF0.015889801768580153
aF0.0063688060387870815
aF0.024820079569837183
aF0.005681899635964896
aF0.040876636144787336
aF0.0057284106230988344
aF0.0065623875028393555
aF0.0691269813991503
aF0.1207327749846192
aF0.008747593454738517
aF0.013689420095186998
aF0.2161330228032825
aF0.3910118371834035
aF0.026816084794374764
aF0.7161224680722889
aF0.06993439283646916
aF0.2625482297656732
aF1.3188437449871073
aF1.560870791619313
aF2.4529108742317414
aF21.170831956485138
aF4.569478850569396
aI1
aF8.542589632282576
aI1
aF16.011837857191697
aI1
aF30.067561389595845
asg11
(lp77
F0.01986555704336507
aF0.023358989132894876
aF0.01720517947533286
aF0.03433773995900479
aF0.013894620898017193
aF0.053490987613654284
aF0.012507743113076201
aF0.08755870438109564
aF0.012735376262383946
aF0.014773420044871487
aF0.1484742551912474
aF0.25861266981393854
aF0.019895510301886476
aF0.03133375850492751
aF0.4614234113002438
aF0.8347729878763693
aF0.06131671350141539
aF1.5247085848793482
aF0.1544878754813629
aF0.5473386779255857
aF2.8156057293542833
aF3.0675108888286595
aF5.2225344915914595
aF39.26989501489804
aF9.728955567197575
aI1
aF18.23761422591106
aI1
aF34.18374690313592
aI1
aF64.19137626195742
asg13
(lp78
F0.013474211279062183
aF0.015843701778835474
aF0.011669757486690293
aF0.023290258738273145
aF0.009398893725408714
aF0.036379690791931686
aF0.008438000782746327
aF0.05954944263514834
aF0.008591567159360243
aF0.009913162165454546
aF0.10097864329918675
aF0.1763628553270329
aF0.013350153338217678
aF0.02096928373593341
aF0.31381810046162534
aF0.5677364356977032
aF0.04092540946123014
aF1.0397864690620684
aF0.1042209470832009
aF0.3742791435204725
aF1.914918106865364
aF2.138415172664171
aF3.561546593709044
aF27.918779038558636
aF6.634734268675026
aI1
aF12.403561550453539
aI1
aF23.248666381799783
aI1
aF43.65711855788181
asg15
(lp79
F0.006210769261442725
aF0.007302956288681976
aF0.005379028841521307
aF0.010826331210369156
aF0.004295588147940701
aF0.016910871891561995
aF0.0038564300452395323
aF0.027681186224932233
aF0.003893053869085111
aF0.004414455026803978
aF0.04733373904649379
aF0.08267008843454668
aF0.005892841121947647
aF0.009174061634470867
aF0.14710223459138688
aF0.26612645423329834
aF0.018064731519996116
aF0.4873999073728446
aF0.04722511664707541
aF0.17836740433397516
aF0.8976178625931394
aF1.1527394290142798
aF1.6694749658011143
aF17.12206370724104
aF3.1100316884414183
aI1
aF5.814169476775096
aI1
aF10.897812366468647
aI1
aF20.4642743240071
asg17
(lp80
F0.02918256239621147
aF0.03431442451935653
aF0.025274460441138978
aF0.05044224095743416
aF0.020434498270822464
aF0.0784872636378742
aF0.01841541158769889
aF0.1281094494419122
aF0.01875056163334978
aF0.02179847345234528
aF0.21785609407958514
aF0.37901343124087405
aF0.029356218647043048
aF0.04628231436281164
aF0.6751207763725087
aF1.2213784322682397
aF0.0906629865968052
aF2.2345579753163545
aF0.22745572433182193
aF0.7988858004018519
aF4.119587022945423
aF4.449601016268138
aF7.653958287924904
aF56.20180361299556
aF14.25840656797909
aI1
aF26.68393522086782
aI1
aF50.01514324575824
aI1
aF93.92009857730486
assg28
(dp81
g5
(lp82
I1000
aI1172
aI853
aI1610
aI621
aI2212
aI452
aI3039
aI329
aI240
aI4175
aI5736
aI174
aI127
aI7880
aI10826
aI92
aI14874
aI67
aI49
aI20434
aI36
aI28072
aI26
aI38566
aI19
aI52983
aI14
aI72790
aI10
aI100000
asg7
(lp83
F0.013472513691157212
aF0.015877168647729485
aF0.011642094953084145
aF0.023312871997608703
aF0.009412411211717504
aF0.036376871992260855
aF0.008450051880292053
aF0.05942579506841172
aF0.008592007064187168
aF0.0099423021473654
aF0.10085748198151907
aF0.17598853290468208
aF0.013335324444459656
aF0.020938262741937764
aF0.313459858894186
aF0.5670261478416333
aF0.04104144995144873
aF1.0375176191745552
aF0.10428179430461541
aF0.3749205935962582
aF1.9140637212243115
aF2.1403674369180887
aF3.55281448258033
aF27.907017324186395
aF6.624651979869501
aF887.3742806077628
aF12.393170983835969
aF90980.26430768552
aF23.24077789217006
aF106910816.28934407
aF43.65818096255322
asg9
(lp84
F0.009159348712305108
aF0.010773861201929122
aF0.007930009400574114
aF0.015947457032424377
aF0.006344767053159101
aF0.024925323047836602
aF0.00567444772959303
aF0.040714835557532116
aF0.005719212622502842
aF0.0065733651624969615
aF0.06907551194300598
aF0.12069239647278274
aF0.008753190699845774
aF0.013638599391252322
aF0.21612665962850483
aF0.39109306936543997
aF0.026820747470389768
aF0.714030466312561
aF0.06993625259860181
aF0.262548670173814
aF1.3195184436176315
aF1.560870844398386
aF2.4463369278528306
aF21.17083195858982
aF4.572622159821496
aF689.4957394167882
aF8.548877207533273
aF71226.46075589303
aF16.024187488486593
aF82559518.89062837
aF30.09152694247211
asg11
(lp85
F0.019860798691138735
aF0.023361650085626955
aF0.017195144572264207
aF0.034367020213018795
aF0.013891817244525838
aF0.05353536064167695
aF0.01253508254547082
aF0.08744928261942786
aF0.012760483778584606
aF0.014798133242188972
aF0.148765917364045
aF0.2592289336355054
aF0.0198883128486813
aF0.03130070794773492
aF0.461409828431007
aF0.8349464140693913
aF0.06132737501190635
aF1.528519490534317
aF0.15449198377041953
aF0.5473395960517895
aF2.817046158105132
aF3.067510992553056
aF5.222696262694698
aF39.269895018802025
aF9.73564792667514
aF1230.4627662308976
aF18.201560450857524
aF125126.55634832858
aF34.210112318878046
aF148555932.51326513
aF64.242540677221
asg13
(lp86
F0.013470984677056274
aF0.015845506457128074
aF0.011662950989138806
aF0.023310120083793472
aF0.00942240320860718
aF0.03631142958393766
aF0.00845644456991561
aF0.059475023696024094
aF0.008608505246402073
aF0.00992974505092663
aF0.10090345824484755
aF0.17630387159504923
aF0.013309724030280572
aF0.020891437212628837
aF0.31380886133936753
aF0.5678543821768316
aF0.04093252541147277
aF1.036748950732453
aF0.10422371862611352
aF0.3742797713501931
aF1.915897747273243
aF2.1384152449722515
aF3.5520014379600124
aF27.918779041334158
aF6.639298251197748
aF889.9242314955615
aF12.412690904663695
aF90758.61977170255
aF23.26659764368702
aF106520861.32252274
aF43.69191575908039
asg15
(lp87
F0.006209281999580626
aF0.007303788132582471
aF0.005375891471556168
aF0.010744508476123554
aF0.0043063327164337495
aF0.016879141095658523
aF0.0038318264457430106
aF0.027878917357511294
aF0.003867101966157181
aF0.0044218395929907645
aF0.047298496052272286
aF0.08264243981017934
aF0.005926986482234317
aF0.009140003780525116
aF0.14709790375282852
aF0.2661817416453898
aF0.018067872544907902
aF0.4859760706558373
aF0.04722637250245769
aF0.17836770353407638
aF0.8980770690343327
aF1.1527394679928544
aF1.6650006740437557
aF17.122063708943212
aF3.1121710552489446
aF577.0602438604031
aF5.818448861561107
aF60269.39594214622
aF10.906217645478291
aF68656023.89928225
aF20.48058551206893
asg17
(lp88
F0.029175573050322246
aF0.03431833176874181
aF0.02525971786825571
aF0.050342616912127644
aF0.02040712187668437
aF0.07864360217601159
aF0.01845566400538683
aF0.12867908322484772
aF0.018787527956156538
aF0.021834938263743827
aF0.21730268148774068
aF0.3792847193058729
aF0.029456943414609298
aF0.046281272173757104
aF0.6751009132412328
aF1.2216321955522749
aF0.09067875072256386
aF2.239055574299795
aF0.22746177305156923
aF0.7988871404825311
aF4.121694614449496
aF4.449601166726343
aF7.663255766851033
aF56.201803618582815
aF14.268215114040336
aF1743.4874833761976
aF26.675551733179475
aF177572.987303992
aF50.05371994372659
aF210890386.85432073
aF93.99496001527719
asssS'cscdt_2022'
p89
(dp90
g3
(dp91
g5
(lp92
I1000
aI1172
aI853
aI1610
aI621
aI2212
aI452
aI3039
aI329
aI240
aI4175
aI5736
aI174
aI127
aI7880
aI10826
aI92
aI14874
aI67
aI49
aI20434
aI36
aI28072
aI26
aI38566
aI19
aI52983
aI14
aI72790
aI10
aI100000
asg7
(lp93
F0.06568131597624663
aF0.07764008309536734
aF0.056599930715601425
aF0.11399693988800261
aF0.044845440951929064
aF0.17707242155232494
aF0.03938543679487881
aF0.2878601139518673
aF0.03943897878212132
aF0.04669330574788643
aF0.4852079907582787
aF0.8414038893489738
aF0.0693444753239822
aF0.13556027809454146
aF1.4908698322670586
aF2.6856426923373427
aF0.39084108133054724
aF4.8981413780923315
aF1.7682896548268174
aF14.139633167607904
aF9.013992402841563
aF236.84905066101092
aF16.70031085175402
aF14650.099491454977
aF31.09654339042003
aF3725922.488801338
aF58.11460161808362
aF6432566834.536218
aF108.89914828611573
aF641791790193613.5
aF204.45503863088888
asg9
(lp94
F0.03354403912716484
aF0.039698568700400276
aF0.029029112655592326
aF0.05817555820232619
aF0.02292093523472114
aF0.09126684419973925
aF0.020135202837458618
aF0.14761571392732295
aF0.02023024520819829
aF0.023846772412695616
aF0.24780327671133648
aF0.4306541569142548
aF0.03542290296939164
aF0.06924935174646478
aF0.7616462654217904
aF1.3775910925071397
aF0.19965799525728747
aF2.508128887631757
aF0.9033215284939915
aF7.223180689485553
aF4.612317184585661
aF120.99377386848313
aF8.540745237229531
aF7483.99572779939
aF15.89700781503389
aF1903395.9863111076
aF29.70065865489048
aF3286113865.818832
aF55.64373211930918
aF327864154269567.0
aF104.45394700628681
asg11
(lp95
F0.12995352204816113
aF0.15379689690800635
aF0.11230478669728713
aF0.22628609733114308
aF0.08879838059901231
aF0.35118620036735737
aF0.07800612908495487
aF0.5710801866148251
aF0.0782646528247741
aF0.09238517783874937
aF0.960018810725549
aF1.6684045541428072
aF0.1372324578671183
aF0.26828006598114207
aF2.950706680694099
aF5.3294799384691665
aF0.7734983619398591
aF9.716784405949443
aF3.4995729657343095
aF27.9834445102632
aF17.86865575986883
aF468.74399280425246
aF33.087845104586684
aF28993.872390424294
aF61.58686597012579
aF7373978.065027209
aF115.06382239262282
aF12730788411.87027
aF215.5703206529607
aF1270183976051171.5
aF404.6667969957901
asg13
(lp96
F0.06561431913317439
aF0.07765297869954133
aF0.05647604129302673
aF0.11379517019901055
aF0.04483483797584421
aF0.17660517011556962
aF0.03938576448053033
aF0.28718587626732284
aF0.03935787419000425
aF0.04664583562674367
aF0.4847193034429963
aF0.8423875008217706
aF0.06928949883602109
aF0.1354562295862081
aF1.4898295621622033
aF2.6800988493305202
aF0.3905440060047037
aF4.906063000830791
aF1.7669555781811792
aF14.129010555937358
aF9.021991971376728
aF236.67167992612556
aF16.706252383807144
aF14639.181710155826
aF31.095579756627895
aF3723166.1699762642
aF58.09641731157182
aF6427852146.319931
aF108.84275394493332
aF641323579698255.2
aF204.3187043637778
asg15
(lp97
F0.018966639124433225
aF0.022446564155336163
aF0.01632510568626554
aF0.032893916385651485
aF0.012960070352392467
aF0.05104993198653184
aF0.011384947545153297
aF0.08301466735852302
aF0.011376885508048103
aF0.013483561860855591
aF0.14011417365149112
aF0.24350263695629307
aF0.020028995757287348
aF0.03915531636476328
aF0.43065385781251186
aF0.7747160736346035
aF0.11289162673573465
aF1.4181588361776507
aF0.5107605968179971
aF4.084167113825642
aF2.607919554226086
aF68.41290747864566
aF4.8291510796942525
aF4231.638463091918
aF8.988566023400251
aF1076227.7210087639
aF16.79349562912623
aF1858051011.0456052
aF31.46235856220729
aF185382597256526.9
aF59.06087548015453
asg17
(lp98
F0.19898003968319591
aF0.23548813027720059
aF0.17127109366963264
aF0.3450989635934046
aF0.13596480448475903
aF0.5355785947394572
aF0.11944010094721429
aF0.8709292770964175
aF0.11935797871081458
aF0.14145678619688196
aF1.4699453717497335
aF2.5545994193054575
aF0.21012529180454034
aF0.4107805691581654
aF4.518013064831681
aF8.127755152132039
aF1.1843522410006355
aF14.877982059820036
aF5.358417403907741
aF42.84722094760432
aF27.359826947035348
aF717.7235604494618
aF50.66288859540086
aF44394.35095216838
aF94.29953868926462
aF11290763.983652161
aF176.18148286212667
aF19492914952.64446
aF330.07332768859726
aF1944858984247297.2
aF619.6108809640629
assg19
(dp99
g5
(lp100
I1000
aI1172
aI853
aI1610
aI621
aI2212
aI452
aI3039
aI329
aI240
aI4175
aI5736
aI174
aI127
aI7880
aI10826
aI92
aI14874
aI67
aI49
aI20434
aI36
aI28072
aI26
aI38566
aI19
aI52983
aI14
aI72790
aI10
aI100000
asg7
(lp101
F0.015612578856899685
aF0.01698381782849091
aF0.01482064783765212
aF0.021783011658717103
aF0.014828753925750109
aF0.030795582639059564
aF0.017125368598274245
aF0.0466643045723917
aF0.02248584296098933
aF0.03438558603823651
aF0.0748053485604438
aF0.12517344222016402
aF0.06168530473228318
aF0.1317114546390503
aF0.21612788337543842
aF0.3821207077257535
aF0.3890309850359223
aF0.6863170022066346
aF1.7677339525491376
aF14.089645141398085
aF1.250661982984194
aI1
aF2.300696362238849
aI1
aF4.26703339632881
aI1
aF8.401702544128174
aI1
aF15.697483357263811
aI1
aF29.40867717086582
asg9
(lp102
F0.010796377493228695
aF0.011960554131557456
aF0.010004452526029557
aF0.01568085355274046
aF0.009413905133683367
aF0.022469911306331972
aF0.010340005921096329
aF0.034337293234852906
aF0.01312949311293485
aF0.01934848202874785
aF0.05536958273493654
aF0.09299559546303095
aF0.03303890987349824
aF0.06851279669881108
aF0.16035915829893693
aF0.28440499605077496
aF0.2010569683571618
aF0.512218474036178
aF0.904926421049249
aF7.205685575634662
aF0.9348293252002582
aI1
aF1.7200674334390162
aI1
aF3.198145330990912
aI1
aF6.433498362473497
aI1
aF12.017129500363877
aI1
aF22.509499347188186
asg11
(lp103
F0.022424158756573068
aF0.02425768313514237
aF0.02143862198127318
aF0.030966347114241243
aF0.02193283317447176
aF0.043368493811424394
aF0.02654139517934704
aF0.06565293738211979
aF0.03838623131567488
aF0.06190693782280152
aF0.10494847085435008
aF0.17523924148562645
aF0.1153179462545452
aF0.25597427532714667
aF0.3024351578551166
aF0.5347000127536217
aF0.7705466718685786
aF0.9602674943020388
aF3.5057907487580224
aF27.915666109614506
aF1.7475506990439473
aI1
aF3.2109927413188637
aI1
aF5.943053078197878
aI1
aF11.604337597979065
aI1
aF21.675738427831206
aI1
aF40.60121179324185
asg13
(lp104
F0.01558895292580056
aF0.01695757345893366
aF0.014821679192193533
aF0.021829816008845242
aF0.014796375835597494
aF0.030745534227738684
aF0.01716680924266527
aF0.04667570002155729
aF0.022454448346797974
aF0.0342940397088849
aF0.07482474789914222
aF0.12493971595459606
aF0.06170175531373477
aF0.13189749851516605
aF0.21624069543784222
aF0.38122322304637957
aF0.3890536635837651
aF0.686589828897058
aF1.7700948522529723
aF14.094788976981649
aF1.2530674682222884
aI1
aF2.3024170612307877
aI1
aF4.2614194130575065
aI1
aF8.417027642798512
aI1
aF15.722163198431826
aI1
aF29.44946397064052
asg15
(lp105
F0.007185532989236195
aF0.007948862558875152
aF0.006600279015273682
aF0.010744362566853518
aF0.006184422712534891
aF0.01561296660002355
aF0.006638727011811961
aF0.024431811730033892
aF0.008244992752339881
aF0.011654615057316353
aF0.0397506473214193
aF0.06735031563177445
aF0.019040776053847838
aF0.03864184526811505
aF0.11825663031756996
aF0.21145975653353866
aF0.1124608246296821
aF0.3808427957163369
aF0.5116680432293748
aF4.074274938658758
aF0.6950608612795506
aI1
aF1.295109596942318
aI1
aF2.397048419844847
aI1
aF5.162005234060025
aI1
aF9.642107899038269
aI1
aF18.060804075744382
asg17
(lp106
F0.03218180187459804
aF0.034818129154781406
aF0.030854471666804523
aF0.04410860774332219
aF0.03184176430054518
aF0.06177346965690728
aF0.03927134027290946
aF0.09336440803918669
aF0.05870512557078076
aF0.10295890498020785
aF0.14852277456927643
aF0.2479980658463696
aF0.18706112505502376
aF0.3999473693862147
aF0.42866966089498443
aF0.7567059448640969
aF1.1798325801551932
aF1.361076938252282
aF5.367937475641944
aF42.74343957337638
aF2.4727693794444208
aI1
aF4.558333496034502
aI1
aF8.436773327595063
aI1
aF16.30431003785075
aI1
aF30.454815420766696
aI1
aF57.04545730423619
assg28
(dp107
g5
(lp108
I1000
aI1172
aI853
aI1610
aI621
aI2212
aI452
aI3039
aI329
aI240
aI4175
aI5736
aI174
aI127
aI7880
aI10826
aI92
aI14874
aI67
aI49
aI20434
aI36
aI28072
aI26
aI38566
aI19
aI52983
aI14
aI72790
aI10
aI100000
asg7
(lp109
F0.017500677727027944
aF0.01880837505867681
aF0.016870341199182265
aF0.02380817034800531
aF0.017749267356910722
aF0.03324454130700375
aF0.022755521379598603
aF0.05008786073936906
aF0.03702498899206205
aF0.07870334053495359
aF0.07996095823672107
aF0.13336182854299392
aF0.2303384324937363
aF0.9687667036368532
aF0.22977354766287952
aF0.4056564661406013
aF4.890318051537616
aF0.7291132891698925
aF26.389074020336604
aF166.25072861496443
aF1.3276580047330329
aF1903.103418242508
aF2.4409636024739685
aF95493.0986951389
aF4.513699946688587
aF22050694.04784009
aF8.412575001377329
aF37584978765.56708
aF15.717776004482472
aF3962310641632674.5
aF29.411430578768474
asg9
(lp110
F0.012959169478406946
aF0.014035429973891667
aF0.012450779655121898
aF0.017875236994262713
aF0.012890186461159074
aF0.02509256551155323
aF0.01603796699417841
aF0.03800075815643532
aF0.024899966920949455
aF0.05105156192250919
aF0.06075486879673861
aF0.101647011347342
aF0.149838954268987
aF0.6475066785790264
aF0.17507815564163823
aF0.30973976671972286
aF3.88223923685778
aF0.5575901366331986
aF21.279969860032967
aF122.53320856578577
aF1.0133595627336596
aF1390.9875095056861
aF1.8671760192896985
aF69589.234784591
aF3.455404162831824
aF16086614.665067544
aF6.4287501910336875
aF27431247880.06228
aF12.007437686585263
aF2891937166282716.5
aF22.560267740432828
asg11
(lp111
F0.024510471589311255
aF0.02623754469526991
aF0.023646232352051665
aF0.03316866140699497
aF0.025132910441483115
aF0.046137363049108863
aF0.03247666351672906
aF0.06944433828577971
aF0.053733749549385354
aF0.11773618699729099
aF0.11080343341324055
aF0.1842792105869618
aF0.3639487562023899
aF1.400871460034729
aF0.3176973343038459
aF0.5598125682129855
aF6.558640951718193
aF1.004863214688421
aF34.86957098850143
aF231.801422956696
aF1.833118571455565
aF2737.0797995975554
aF3.3678940830555972
aF137233.83118832842
aF6.232639619586606
aF31723697.109001916
aF11.595773245878227
aF54095943564.72968
aF21.658257132443886
aF5703060627208292.0
aF40.566450091726175
asg13
(lp112
F0.017475146727096248
aF0.018813424256912466
aF0.016858973047067537
aF0.023783326531914915
aF0.017717518035203883
aF0.033272628143516364
aF0.022703132126543898
aF0.050080793246061475
aF0.03704695405310896
aF0.07858218625877401
aF0.0799075034410986
aF0.13327875106357098
aF0.23064274960006415
aF0.9658366188855398
aF0.2297725490253605
aF0.40488083117408163
aF4.898845321678825
aF0.7288620391414014
aF26.359040310484627
aF166.21137468575023
aF1.3257911902761543
aF1908.065920607934
aF2.4428501078050324
aF95139.35436504832
aF4.52074916584178
aF21992915.109518245
aF8.410815549780079
aF37502800840.031746
aF15.70948327533442
aF3953729850832446.0
aF29.424249853466918
asg15
(lp113
F0.00955672086638076
aF0.010435571267506133
aF0.009022184794719735
aF0.013563928412732726
aF0.009135595236902001
aF0.019495680552841618
aF0.011174197843533325
aF0.029735470989849
aF0.017365759712394825
aF0.03560755314850698
aF0.048069357538785884
aF0.0806961188080215
aF0.10450999591252907
aF0.4565087143951184
aF0.14001764706232908
aF0.246724256496706
aF3.2722755859651524
aF0.44415030510179143
aF18.43073521709667
aF95.44168780783313
aF0.8130828784115477
aF1080.7404628443376
aF1.498154167677305
aF54259.16303631662
aF2.772490699363904
aF12542834.398397123
aF5.158195473888564
aF21388316104.080605
aF9.634331539951187
aF2254861555552879.5
aF18.160279206436613
asg17
(lp114
F0.03468715027762274
aF0.03724688326632663
aF0.03367985772833893
aF0.04678043147738791
aF0.03579943523665243
aF0.065272306636434
aF0.04647238152658084
aF0.09759836859343653
aF0.07744009722990408
aF0.17219082561185114
aF0.1557252021418375
aF0.25938536081386104
aF0.5352858057901714
aF1.9949088062958702
aF0.4471803137229678
aF0.7879737500098777
aF9.066564671802308
aF1.4165838682313425
aF47.782706485772856
aF324.79051452637805
aF2.5802375446733388
aF3970.29163011873
aF4.731953609488479
aF198418.6704246752
aF8.78632699861379
aF45867505.49019794
aF16.346886994698572
aF78214275591.11949
aF30.532252945876767
aF8245733898246703.0
aF57.187663242832194
asssS'cscdt'
p115
(dp116
g3
(dp117
g5
(lp118
I1000
aI1172
aI853
aI1610
aI621
aI2212
aI452
aI3039
aI329
aI240
aI4175
aI5736
aI174
aI127
aI7880
aI10826
aI92
aI14874
aI67
aI49
aI20434
aI36
aI28072
aI26
aI38566
aI19
aI52983
aI14
aI72790
aI10
aI100000
asg7
(lp119
F0.03166697612894077
aF0.03717870784635704
aF0.027491495483568267
aF0.05395040221517379
aF0.022138681901529723
aF0.08302012438172145
aF0.019779834550985156
aF0.13398601237072397
aF0.020135132059262754
aF0.024193594844420643
aF0.2245981428500369
aF0.387864391444046
aF0.03649953677512731
aF0.07298662924260417
aF0.6851305501626177
aF1.2313723684033178
aF0.2192898070440668
aF2.2420275453257426
aF1.0648817731806612
aF9.486019785638481
aF4.120885965053402
aI1
aF7.6279049236239285
aI1
aF14.194032349341523
aI1
aI1
aI1
aI1
aI1
aI1
asg9
(lp120
F0.016240132477350882
aF0.019041161688363898
aF0.014032071292276975
aF0.027593580534227946
aF0.011312504350407093
aF0.04241267861722242
aF0.010113859208359666
aF0.06838745927415987
aF0.010300738610251235
aF0.012467798848843007
aF0.11518008673071914
aF0.19988097252916392
aF0.018668311624173196
aF0.03735381959426291
aF0.35294316845845725
aF0.6303400747539312
aF0.11191743197247504
aF1.1474727816811998
aF0.5440991801163068
aF4.839713054164667
aF2.108779851298593
aI1
aF3.903029272643453
aI1
aF7.262236951908963
aI1
aI1
aI1
aI1
aI1
aI1
asg11
(lp121
F0.06282812463852341
aF0.07376768453424455
aF0.05458069932322129
aF0.10690075413114666
aF0.04382596390222768
aF0.16431167108882389
aF0.03918227254090142
aF0.2660074308064675
aF0.03990626518370426
aF0.047974912466709936
aF0.4455966492159696
aF0.7691231123826868
aF0.07232322202791538
aF0.1447130561654685
aF1.3580919923699504
aF2.4420110416299727
aF0.4353264359998872
aF4.44544352336988
aF2.1079038151138745
aF18.825083608706915
aF8.169659343408041
aI1
aF15.12079107983269
aI1
aF28.134753815895287
aI1
aI1
aI1
aI1
aI1
aI1
asg13
(lp122
F0.031595123257010846
aF0.03724574893769748
aF0.027447642795208445
aF0.05397483565816508
aF0.02212799322792142
aF0.08296195397141501
aF0.019783365481108494
aF0.1337703119326451
aF0.02014891372855256
aF0.02412571351593762
aF0.22408247236194292
aF0.3867780623500439
aF0.0365164299964725
aF0.07306649716241685
aF0.6829598289858703
aF1.232986125211128
aF0.21891776569210017
aF2.2445312864212963
aF1.0642933341721073
aF9.466793061059445
aF4.124910349053981
aI1
aF7.634578749163125
aI1
aF14.205407141842938
aI1
aI1
aI1
aI1
aI1
aI1
asg15
(lp123
F0.009132965316479698
aF0.010766349302303177
aF0.007934084245489942
aF0.015602100932438343
aF0.006396373042446036
aF0.02398118981986215
aF0.0057186290843829245
aF0.03866798079303023
aF0.005824295374659724
aF0.006973839063200718
aF0.06477383966712412
aF0.11180303364805957
aF0.010555530545855332
aF0.021120784336011122
aF0.19741807556622812
aF0.35641005181884167
aF0.0632809166453727
aF0.648809824981156
aF0.30764729190912476
aF2.7364948692124957
aF1.1923568977734165
aI1
aF2.206870419679966
aI1
aF4.106250501938974
aI1
aI1
aI1
aI1
aI1
aI1
asg17
(lp124
F0.09581640654459976
aF0.1129503555263566
aF0.0832386213329006
aF0.16368248863150117
aF0.06710470123165965
aF0.2515879654321657
aF0.059994452108354045
aF0.4056762077568911
aF0.061103002968697695
aF0.07316442726183274
aF0.6795598088935686
aF1.1729557576028418
aF0.11073864735491962
aF0.22157929392486933
aF2.0711662361435317
aF3.739117350156094
aF0.6638971681911648
aF6.806699365403615
aF3.2275443919287894
aF28.709306787930924
aF12.509081439456713
aI1
aF23.152398294214972
aI1
aF43.07889863805325
aI1
aI1
aI1
aI1
aI1
aI1
assg19
(dp125
g5
(lp126
I1000
aI1172
aI853
aI1610
aI621
aI2212
aI452
aI3039
aI329
aI240
aI4175
aI5736
aI174
aI127
aI7880
aI10826
aI92
aI14874
aI67
aI49
aI20434
aI36
aI28072
aI26
aI38566
aI19
aI52983
aI14
aI72790
aI10
aI100000
asg7
(lp127
F0.010822130082986676
aF0.01197568440218001
aF0.010054707482660526
aF0.015752251126895905
aF0.009593348229753496
aF0.02260965094190133
aF0.010619581494088275
aF0.03464830778783342
aF0.013675473198911083
aF0.02019269671161112
aF0.05588240984299705
aF0.09408594651141688
aF0.03465770187719068
aF0.07228931552384911
aF0.16307012546650163
aF0.2891031806107502
aF0.2186872128282177
aF0.5212168756780196
aF1.0652029910008913
aF9.47782218154221
aF0.9511945655294679
aI1
aF1.7516181707536227
aI1
aF3.2472217220507624
aI1
aF6.794675415879225
aI1
aF12.697853908698196
aI1
aF23.792927442012243
asg9
(lp128
F0.006697557758705701
aF0.007469396606154458
aF0.00623358415306029
aF0.009921281322997461
aF0.005848056365667292
aF0.01437504325737728
aF0.006337977945226599
aF0.022222173640111254
aF0.007851263500040503
aF0.011086981085878618
aF0.03623494409962638
aF0.061320381316592704
aF0.0182548901835339
aF0.037303081158542264
aF0.10632001276764548
aF0.18949405492989496
aF0.1128673394067389
aF0.343145172146553
aF0.5481738066984717
aF4.840507400335224
aF0.6266618862179073
aI1
aF1.1563678634688916
aI1
aF2.1403592695380995
aI1
aF4.902251286299201
aI1
aF9.13742413931153
aI1
aF17.115845392428717
asg11
(lp129
F0.01682928669282359
aF0.018392851178746478
aF0.015914839480559047
aF0.02373378044261421
aF0.015779620072288756
aF0.03357520443593731
aF0.018140977867250732
aF0.05106686301972462
aF0.02401792000829926
aF0.0369622645830361
aF0.08216391316804854
aF0.13739780995750595
aF0.06632219406509224
aF0.14238784128679574
aF0.2379848886838952
aF0.42021678517755867
aF0.43430288479701973
aF0.7567896504204681
aF2.1093210858219873
aF18.752690482228285
aF1.38080804123185
aI1
aF2.540996818412512
aI1
aF4.703214492524117
aI1
aF9.55666218729682
aI1
aF17.851399636570875
aI1
aF33.438504283005365
asg13
(lp130
F0.010801534237487372
aF0.01195804123463305
aF0.0100601893975315
aF0.01575710286894052
aF0.009588167266595908
aF0.022650577873520806
aF0.010611765434018967
aF0.034637120574569066
aF0.013667137822424947
aF0.020207931706645373
aF0.055880395719905745
aF0.09421165861694063
aF0.034600661819414555
aF0.07218302606608674
aF0.16273795676243494
aF0.2881364822247238
aF0.2184030339955132
aF0.5217717401808931
aF1.0607392995095972
aF9.468346853759828
aF0.9493946408797627
aI1
aF1.751900788300367
aI1
aF3.2426507256102663
aI1
aF6.794271883832518
aI1
aF12.691383273862336
aI1
aF23.772974814305872
asg15
(lp131
F0.004472510270209615
aF0.004951376448715248
aF0.004086951942747172
aF0.006647527772834281
aF0.0038202853952843075
aF0.009732670180028472
aF0.004020864246483749
aF0.015018438999129557
aF0.004804853140696271
aF0.006472853124784846
aF0.024447673127458762
aF0.04158561493638395
aF0.010272071477638697
aF0.0208654059722282
aF0.0724692463707718
aF0.12831077724069734
aF0.06313212701432803
aF0.23235147804930398
aF0.30661995376449297
aF2.7369440124149502
aF0.42648587383270586
aI1
aF0.7869866822443055
aI1
aF1.456659505645237
aI1
aF3.476756315554921
aI1
aF6.543994500585267
aI1
aF12.257940138626466
asg17
(lp132
F0.02471245733631155
aF0.02688639249959721
aF0.023482526830470026
aF0.03450200052373309
aF0.023617469237603786
aF0.04860608950585613
aF0.028184997256548407
aF0.07374566441645547
aF0.03950408342026765
aF0.061258062193094355
aF0.11815930969409853
aF0.19738165922097858
aF0.10491170285120312
aF0.21889561990054007
aF0.34133794208639395
aF0.6036711275351391
aF0.6623362202646035
aF1.0841882461347891
aF3.2168327149024747
aF28.71342938896579
aF1.9809195729950526
aI1
aF3.640270318432435
aI1
aF6.737895928989451
aI1
aF13.503690260793203
aI1
aF25.224264150962437
aI1
aF47.24904948739577
assg28
(dp133
g5
(lp134
I1000
aI1172
aI853
aI1610
aI621
aI2212
aI452
aI3039
aI329
aI240
aI4175
aI5736
aI174
aI127
aI7880
aI10826
aI92
aI14874
aI67
aI49
aI20434
aI36
aI28072
aI26
aI38566
aI19
aI52983
aI14
aI72790
aI10
aI100000
asg7
(lp135
F0.01362709819908829
aF0.014720658154609626
aF0.013059586022225629
aF0.018772820036546633
aF0.01350199735703783
aF0.026378831426305673
aF0.017011147468357274
aF0.039820059262065784
aF0.027127099111781097
aF0.05827589701898909
aF0.06380314290608302
aF0.10669717109850314
aF0.18615617419885008
aF0.911868543910458
aF0.18419636260148764
aF0.3266102102780518
aF4.724984603751201
aF0.5876716953666168
aF24.386939990663194
aF166.07143818360217
aF1.0709566055445436
aI1
aF1.9702603174609143
aI1
aF3.6498830113239413
aI1
aF6.7956566797218025
aI1
aF12.699871669290218
aI1
aF23.796705963373512
asg9
(lp136
F0.009212877738499745
aF0.010017620897652778
aF0.008731612578918597
aF0.012907996150762649
aF0.00897365700569844
aF0.018398940375940614
aF0.011187997037074193
aF0.027981528110193922
aF0.01772820996884211
aF0.03818262099511509
aF0.04523284565938651
aF0.07620353729800278
aF0.12281700689825578
aF0.6126053085195478
aF0.1318989606297322
aF0.2333214318411112
aF3.7782292730983014
aF0.4223454006018399
aF19.631715096460514
aF122.53497013208167
aF0.7712467783300083
aI1
aF1.414849688213752
aI1
aF2.632351525518194
aI1
aF4.887064808241578
aI1
aF9.12815634158728
aI1
aF17.187463396020952
asg11
(lp137
F0.019631141151554354
aF0.021194947512029567
aF0.018937269172476213
aF0.02683167876568284
aF0.019822703908069148
aF0.03757583962709685
aF0.025371514418260487
aF0.056610559164867943
aF0.04154264418953255
aF0.09121749671784411
aF0.09045895252367009
aF0.1511416529996003
aF0.2937876750769747
aF1.2588584937335163
aF0.26078188015627524
aF0.4600077618803931
aF6.134304302250671
aF0.8280049653238605
aF32.12583456007252
aF231.80475970598383
aF1.5077627478700815
aI1
aF2.772829462924463
aI1
aF5.1316206619979186
aI1
aF9.574709188581693
aI1
aF17.88383126231823
aI1
aF33.49751558727647
asg13
(lp138
F0.013609574327615169
aF0.014693706426780943
aF0.013056378615770949
aF0.018756949794598247
aF0.01351824166801795
aF0.026341160356467233
aF0.01702462556472774
aF0.03979595109005358
aF0.027149506204562236
aF0.05824805050130034
aF0.06376930200777771
aF0.10684798931026765
aF0.18618003710409167
aF0.9104613003251334
aF0.18435698438470674
aF0.3261165619591167
aF4.722498352948014
aF0.5853493248285365
aF24.358357419898827
aF166.21376417966025
aF1.0689089553913511
aI1
aF1.9713323659915054
aI1
aF3.648305832093228
aI1
aF6.787866210429808
aI1
aF12.678510808796709
aI1
aF23.747630315433234
asg15
(lp139
F0.006485812765504103
aF0.007117264050472019
aF0.006222180434078343
aF0.009158666891893675
aF0.006336675781883414
aF0.012964789862948715
aF0.00791379078985391
aF0.01989797554502679
aF0.012620278274776978
aF0.027303773672484533
aF0.032133749839856736
aF0.05384136961337706
aF0.08727189239254297
aF0.43389171343619637
aF0.09361878113285889
aF0.16560606661986396
aF3.1729285808869467
aF0.2995342248146027
aF16.889095476687665
aF95.44305990003927
aF0.5469807545166679
aI1
aF1.0087677341597157
aI1
aF1.8669065000164564
aI1
aF3.4999935147528696
aI1
aF6.537357135785803
aI1
aF12.24487188139526
asg17
(lp140
F0.02804366012935743
aF0.03018586040469026
aF0.027129818365443453
aF0.03815872928818566
aF0.028552589544156518
aF0.053356148202580285
aF0.0368174715732059
aF0.08051015167783564
aF0.06060822893961319
aF0.13484179898785664
aF0.12804191492952852
aF0.21426811828392964
aF0.43635040468605973
aF1.707057084257199
aF0.3697011580913715
aF0.6510748928195049
aF8.094435305411414
aF1.170114466766842
aF43.43115598351728
aF324.7951946647914
aF2.1272144877132972
aI1
aF3.9180446521326235
aI1
aF7.251047769201354
aI1
aF13.508397013582908
aI1
aF25.231251211620965
aI1
aF47.259684927166035
asssS'2022'
p141
(dp142
g3
(dp143
g5
(lp144
I1000
aI1172
aI853
aI1610
aI621
aI2212
aI452
aI3039
aI329
aI240
aI4175
aI5736
aI174
aI127
aI7880
aI10826
aI92
aI14874
aI67
aI49
aI20434
aI36
aI28072
aI26
aI38566
aI19
aI52983
aI14
aI72790
aI10
aI100000
asg7
(lp145
F0.05662004469266807
aF0.06702177596509645
aF0.048650505177596844
aF0.09838589037624543
aF0.03807739588271516
aF0.15246359433047088
aF0.032621431076248264
aF0.2471242712761648
aF0.03126076563196606
aF0.03438461019225455
aF0.4153627963885936
aF0.7184943419715483
aF0.04501185123824557
aF0.07151398900616793
aF1.2705462950565403
aF2.285182532497134
aF0.1451183261830341
aF4.1627975491849245
aF0.3797977399465325
aF1.3633130106002451
aF9.00186551725176
aF7.790723259434246
aF16.677839051622097
aI1
aF31.054693932891666
aI1
aI1
aI1
aI1
aI1
aI1
asg9
(lp146
F0.02916911726690504
aF0.0342137484165699
aF0.024873767190231124
aF0.05044539298898946
aF0.019489550324067188
aF0.07817377151889097
aF0.016689580602914002
aF0.12615317125108128
aF0.01595349260040809
aF0.017562292849144255
aF0.21244197905404683
aF0.36672600037408326
aF0.022993906306245565
aF0.03653303305377647
aF0.650580509667678
aF1.1688244859230794
aF0.07413421941946159
aF2.127467533957187
aF0.194020170729699
aF0.6964475045602981
aF4.610079192630635
aF3.9862172811218626
aF8.531786836383267
aI1
aF15.873693282914529
aI1
aI1
aI1
aI1
aI1
aI1
asg11
(lp147
F0.11224000728138497
aF0.13308158562359626
aF0.0963638782371897
aF0.19515784803752645
aF0.07550479461930984
aF0.30243050463425203
aF0.06465738584280324
aF0.4906993376966729
aF0.06205447072841088
aF0.0680383709814163
aF0.8230250293989742
aF1.4264579958109875
aF0.08908107506318541
aF0.14153323130073556
aF2.5204248122188493
aF4.528162451337927
aF0.2872046131223019
aF8.242057485728798
aF0.7516567721183521
aF2.6981188670170755
aF17.859985075136752
aF15.443071367775252
aF33.05313839415904
aI1
aF61.74407305099146
aI1
aI1
aI1
aI1
aI1
aI1
asg13
(lp148
F0.05644346489913454
aF0.06692431399917398
aF0.048654704112314553
aF0.09814134284053949
aF0.03812282623084011
aF0.15208681025535944
aF0.03264590360531793
aF0.2467637962962889
aF0.031206067665363674
aF0.03435298543939583
aF0.41555030859855574
aF0.7173398746572326
aF0.0449775741310324
aF0.07146098538121701
aF1.2725777304674353
aF2.2862966066575616
aF0.1450113480143814
aF4.161464670051881
aF0.3795160550663071
aF1.362296551422627
aF9.017614313760783
aF7.797299896597492
aF16.688729169926393
aI1
aF31.049975017582575
aI1
aI1
aI1
aI1
aI1
aI1
asg15
(lp149
F0.01631568907240608
aF0.019345309515386228
aF0.014064250407465926
aF0.028368981914843446
aF0.01101987945735222
aF0.043962593589439845
aF0.009436706510912215
aF0.071330159866896
aF0.009020503934519187
aF0.009930159853575357
aF0.12012001107927002
aF0.20735605751810632
aF0.013001330022251553
aF0.020656691086758043
aF0.367854500213243
aF0.6608826128619514
aF0.041917342785407125
aF1.2029233811868718
aF0.10970385966760439
aF0.3937888468956031
aF2.6066541375714762
aF2.2539070013602127
aF4.824085775681848
aI1
aF8.975383403519963
aI1
aI1
aI1
aI1
aI1
aI1
asg17
(lp150
F0.17117230142991494
aF0.2029568549593931
aF0.14754882290241442
aF0.29762664365933805
aF0.11561015605041941
aF0.4612234465097508
aF0.09900099880147606
aF0.7483439310777497
aF0.09463654317480083
aF0.10417785106070898
aF1.2601856070987973
aF2.175428355279271
aF0.13639766555838234
aF0.21671047789513045
aF3.859181451626207
aF6.933355225450869
aF0.43975713965838514
aF12.619934234086426
aF1.1509092020428755
aF4.131260367020954
aF27.346551659052007
aF23.645860818626765
aF50.60974870846832
aI1
aF94.16317306562618
aI1
aI1
aI1
aI1
aI1
aI1
assg19
(dp151
g5
(lp152
I1000
aI1172
aI853
aI1610
aI621
aI2212
aI452
aI3039
aI329
aI240
aI4175
aI5736
aI174
aI127
aI7880
aI10826
aI92
aI14874
aI67
aI49
aI20434
aI36
aI28072
aI26
aI38566
aI19
aI52983
aI14
aI72790
aI10
aI100000
asg7
(lp153
F0.0030299695869004605
aF0.003528116463467059
aF0.0026598243298983793
aF0.005068531973059388
aF0.0021972965034711485
aF0.00773816480037936
aF0.0020145132314934883
aF0.012425007967280575
aF0.0020894834371223436
aF0.0024563758836134582
aF0.020769688370481675
aF0.03579042096927652
aF0.003345836326737048
aF0.005315484870294869
aF0.06302191980446079
aF0.11331411541647743
aF0.010564769304844648
aF0.2061423740956452
aF0.027267578822524556
aF0.09794246970257413
aF0.3813337130241166
aF0.5205643658041944
aF0.7055531470347878
aF5.300912683349471
aF1.312474179634804
aI1
aF2.5487476042442916
aI1
aF4.773344799271612
aI1
aF8.958164342995934
asg9
(lp154
F0.0015819014450445727
aF0.0018445436558024823
aF0.0013821105967674523
aF0.0026433147576766626
aF0.0011424153408409814
aF0.004077009556620678
aF0.0010443421179635918
aF0.006538914127844154
aF0.0010786593243066597
aF0.0012557130623541163
aF0.010909865788879817
aF0.018942135079478957
aF0.0017066862028497836
aF0.0027198989322264233
aF0.03314972501886345
aF0.059531460783291364
aF0.005400949934616225
aF0.10912333955799816
aF0.013948954238363875
aF0.05006617191157661
aF0.20054035440134863
aF0.26607831232876916
aF0.37151718086455665
aF2.7166273065082307
aF0.6965500298116287
aI1
aF1.3456388328832296
aI1
aF2.5413522260055217
aI1
aF4.752465843661423
asg11
(lp155
F0.00588017014684965
aF0.006828286272373978
aF0.005163776352712954
aF0.009744882264175279
aF0.004285771618409424
aF0.014812262127583367
aF0.003970198843084519
aF0.0237614669766698
aF0.004133939403983673
aF0.004864778929588372
aF0.03968547848961662
aF0.06847839146178143
aF0.00663851583374302
aF0.01053720629376631
aF0.12058468424915783
aF0.21564587705990268
aF0.021008132606396755
aF0.3928549353708333
aF0.05403987680688142
aF0.19474292325351752
aF0.7288400297303345
aF1.0349676599094657
aF1.3446192021401446
aF10.524531983504781
aF2.4971767007040824
aI1
aF4.849883575124616
aI1
aF9.066035691613521
aI1
aF17.04083878193466
asg13
(lp156
F0.003029912704653996
aF0.003532967413685746
aF0.0026607719895937886
aF0.005062902617462526
aF0.0021993223599481395
aF0.007727640510836788
aF0.0020208457848961245
aF0.01239649038972474
aF0.0020872510180040523
aF0.00245625630534979
aF0.020790606697878095
aF0.03572556016371396
aF0.0033383890577233593
aF0.005320298961986356
aF0.06317244486293211
aF0.11344733393119462
aF0.010564608850137562
aF0.20581061302155426
aF0.027285060439512145
aF0.09793268393018997
aF0.38023992205898577
aF0.5204664600280031
aF0.7044251233983215
aF5.313899449597762
aF1.3137188544300362
aI1
aF2.5514346300149096
aI1
aF4.769474784750798
aI1
aF8.964872532675004
asg15
(lp157
F0.000899505334194155
aF0.0010488497009379558
aF0.0007795230438263053
aF0.0015030492145591873
aF0.0006443327226410564
aF0.002294143276654671
aF0.000584150734696536
aF0.0037286318750343944
aF0.0006033459973917964
aF0.0007100115882651737
aF0.006253424670846146
aF0.01074557864299209
aF0.0009650030869981584
aF0.0015378989186991812
aF0.0190010869314288
aF0.03412283090899213
aF0.0030538322457428894
aF0.06190397344788937
aF0.007887087783296479
aF0.02830866644857054
aF0.11585435125234722
aF0.15044733610184466
aF0.21462952978542607
aF1.536049059649353
aF0.39514199918403436
aI1
aF0.7773902388326678
aI1
aF1.4531993484787589
aI1
aF2.7314845997994155
asg17
(lp158
F0.009187480415078919
aF0.010712652406238402
aF0.00806814964654732
aF0.015351401384042776
aF0.006669052132329138
aF0.023430763410818126
aF0.006128105634458885
aF0.0375870525666469
aF0.0063297358502137245
aF0.00744877051201282
aF0.06303732549933552
aF0.10832247748438686
aF0.01012410781740104
aF0.016134180819228298
aF0.19153947377046904
aF0.34396638111214384
aF0.0320385793666166
aF0.6240198136739862
aF0.08274386783803804
aF0.2969938699284938
aF1.1529148554861572
aF1.5783836206000452
aF2.135823978850374
aF16.114774562720203
aF3.9831267598089504
aI1
aF7.735815701594619
aI1
aF14.460796876469157
aI1
aF27.181023263480174
assg28
(dp159
g5
(lp160
I1000
aI1172
aI853
aI1610
aI621
aI2212
aI452
aI3039
aI329
aI240
aI4175
aI5736
aI174
aI127
aI7880
aI10826
aI92
aI14874
aI67
aI49
aI20434
aI36
aI28072
aI26
aI38566
aI19
aI52983
aI14
aI72790
aI10
aI100000
asg7
(lp161
F0.0031954260227582305
aF0.00371671052166758
aF0.002805987710716187
aF0.005329851590351853
aF0.002328769958385779
aF0.008129047179017648
aF0.0021452627217019246
aF0.013052359342526135
aF0.002235276928084913
aF0.0026472760929526756
aF0.02180245196581739
aF0.03755703520934617
aF0.0036136196028861743
aF0.0057428215222359675
aF0.06622336868891603
aF0.11886861986851324
aF0.011395068226931782
aF0.21622696921855758
aF0.029379131066137907
aF0.10553335686052194
aF0.39715500173421636
aF0.557896451644208
aF0.7338478041339659
aF5.30119352711757
aF1.3650152604826316
aI1
aF2.549043567899561
aI1
aF4.773897128156736
aI1
aF8.959198232487678
asg9
(lp162
F0.001673177959279692
aF0.0019461016161824514
aF0.0014673909522833117
aF0.0028075757029794586
aF0.0012097621759596007
aF0.004265556508789506
aF0.0011104675441459633
aF0.0068516012989151285
aF0.001153158437606367
aF0.0013534258950731511
aF0.011553888180843951
aF0.019896556581147487
aF0.0018499730999705184
aF0.0029384341841640696
aF0.03515057741237512
aF0.06275212925826057
aF0.005877881335846699
aF0.11497402616660533
aF0.015009541278778028
aF0.054441307812977
aF0.21104168220451075
aF0.28534767177985504
aF0.39088087746733213
aF2.7102616221970024
aF0.7213925290462851
aI1
aF1.357476135489409
aI1
aF2.5320681255940385
aI1
aF4.735072478672421
asg11
(lp163
F0.00619391024138606
aF0.0071745264263621015
aF0.005432110704790944
aF0.010242681277358286
aF0.004538423055195078
aF0.015581094929493415
aF0.0042215831197777035
aF0.024923228317315922
aF0.0044194557822716035
aF0.0052433297317460905
aF0.04159515555249943
aF0.07162959445264676
aF0.00716701200404736
aF0.011383837517827988
aF0.12601709321862486
aF0.22616804395239315
aF0.02261753201184056
aF0.4118792334107254
aF0.058382773393484876
aF0.20948500860626884
aF0.7560288877000425
aF1.1054701707124155
aF1.394430819344036
aF10.542133928938588
aF2.600006483431242
aI1
aF4.842668662543094
aI1
aF9.079195754174952
aI1
aF17.06590899238305
asg13
(lp164
F0.003204740201641159
aF0.0037274875940534586
aF0.002810583745874419
aF0.005321531735031866
aF0.0023289752060304445
aF0.008128744151207594
aF0.0021488012570317068
aF0.013056892780625235
aF0.002231409925799305
aF0.002647388952349392
aF0.021791056055594255
aF0.0375256340538184
aF0.003618667534612819
aF0.0057477681080878845
aF0.06629527573665868
aF0.11898285913289447
aF0.011373946829634147
aF0.21577714143340912
aF0.029359637573006112
aF0.10534621320512758
aF0.39607181228392946
aF0.5581585786104518
aF0.7335844554896643
aF5.301447757649915
aF1.3678156690075611
aI1
aF2.5476390611521733
aI1
aF4.776397924095646
aI1
aF8.978061276538474
asg15
(lp165
F0.0009514072473622191
aF0.0011065978794846205
aF0.0008343920495564681
aF0.0015798297338375851
aF0.0006823169548917317
aF0.0024449738267304085
aF0.0006211378633607278
aF0.003927268531672434
aF0.0006450169316763616
aF0.0007652608690384961
aF0.00655434107922171
aF0.011287007117750067
aF0.001046021084224018
aF0.001661464218744154
aF0.019940375905166872
aF0.03625258989205378
aF0.003287781505441121
aF0.06574459778049184
aF0.008486770235947079
aF0.03045163975460719
aF0.12067813030525974
aF0.16134271412958373
aF0.2235140137820071
aF1.5324497424456784
aF0.4167563366507413
aI1
aF0.7762337764448028
aI1
aF1.4553087424978919
aI1
aF2.7355030451953164
asg17
(lp166
F0.00971740293056949
aF0.01130224386877027
aF0.008522242727702396
aF0.01613559972663692
aF0.007062201013920919
aF0.02464693818971222
aF0.0065161237075427375
aF0.0395886282773172
aF0.006766907867881057
aF0.00802839350257431
aF0.06607069763771425
aF0.11377809277296712
aF0.010973863814227085
aF0.01743051171398609
aF0.2010038002752851
aF0.3607497970914218
aF0.03449300436317886
aF0.654238446319259
aF0.08903699779135278
aF0.31947638283849067
aF1.200893621956607
aF1.6926552346593882
aF2.2241897035145253
aF16.077343525944855
aF4.147145359171502
aI1
aF7.724307996096567
aI1
aF14.481788452524073
aI1
aF27.221012695893748
asssS'2023'
p167
(dp168
g3
(dp169
g5
(lp170
I1000
aI1172
aI853
aI1610
aI621
aI2212
aI452
aI3039
aI329
aI240
aI4175
aI5736
aI174
aI127
aI7880
aI10826
aI92
aI14874
aI67
aI49
aI20434
aI36
aI28072
aI26
aI38566
aI19
aI52983
aI14
aI72790
aI10
aI100000
asg7
(lp171
F0.0610564548071882
aF0.07126346905101749
aF0.05335284346143855
aF0.10237251646572168
aF0.04359627155332272
aF0.1562653158695686
aF0.039593287379815593
aF0.2505996613303108
aF0.0409897929851141
aF0.05006440844470431
aF0.41762204603666064
aF0.7185294998476633
aF0.07692919139228642
aF0.15801803298081696
aF1.265687018250545
aF2.2700715783325465
aF0.49964864737534737
aF4.126892658242452
aF2.6772482449985517
aF28.825320802811273
aF7.581982624750354
aI1
aF14.023812789090421
aI1
aF26.081031516457614
aI1
aI1
aI1
aI1
aI1
aI1
asg9
(lp172
F0.031191296665549217
aF0.03651333184555974
aF0.027280761826588572
aF0.05229275309292095
aF0.022280805227314158
aF0.08052524746949062
aF0.0203463723119466
aF0.1282558323863391
aF0.021143963560768995
aF0.025584529269415467
aF0.21336872805268373
aF0.3682481401342871
aF0.039293103562246544
aF0.08080488660925023
aF0.6531393073868429
aF1.160288760752432
aF0.25527368808843204
aF2.1135678642016447
aF1.3671664500866485
aF14.7300244256308
aF3.8742807541944804
aI1
aF7.234992024518429
aI1
aF13.35387701679793
aI1
aI1
aI1
aI1
aI1
aI1
asg11
(lp173
F0.12083872923127492
aF0.1414569117039737
aF0.10568885446775773
aF0.20258822688443018
aF0.08631844159708142
aF0.3098535420890467
aF0.07839834916261401
aF0.4968780588530211
aF0.08103380492886686
aF0.099117451713767
aF0.8299426134288876
aF1.4266362959987091
aF0.1522260746186502
aF0.31304756881970713
aF2.513218394730122
aF4.495094089864206
aF0.9889600855765139
aF8.188208498844691
aF5.29656245145939
aF57.065836189774416
aF15.069831359413548
aI1
aF27.839566521025922
aI1
aF51.734480194871615
aI1
aI1
aI1
aI1
aI1
aI1
asg13
(lp174
F0.06101220207358624
aF0.07142244853840148
aF0.05336294194923916
aF0.10228802133171166
aF0.043582702106532374
aF0.15581973007442237
aF0.039583799080797136
aF0.25087673803937205
aF0.04091445600326435
aF0.05004500090139721
aF0.41736308982989134
aF0.720317278887316
aF0.07685986255537815
aF0.1580596062805582
aF1.2638519442808591
aF2.269600173850029
aF0.49933191328090626
aF4.13427601326167
aF2.674266370370063
aF28.812884454337993
aF7.578344779933425
aI1
aF14.000012912449503
aI1
aF26.121050745369782
aI1
aI1
aI1
aI1
aI1
aI1
asg15
(lp175
F0.01763633966189602
aF0.02064555153063168
aF0.015425225407201945
aF0.029567631166197903
aF0.012598124827669515
aF0.04504164072463772
aF0.011442191921792922
aF0.07251905708950597
aF0.0118268349384436
aF0.014466133073060132
aF0.12064401815395297
aF0.20821671342836479
aF0.022217304019913998
aF0.04568910494047386
aF0.3653322026436858
aF0.656056300253524
aF0.14433813118276195
aF1.1950641600834515
aF0.7730301226850964
aF8.328724412582076
aF2.1906152879495058
aI1
aF4.0468787325049345
aI1
aF7.550616231083453
aI1
aI1
aI1
aI1
aI1
aI1
asg17
(lp176
F0.18502380747350294
aF0.21659360921378662
aF0.1618268812334976
aF0.31019562693314906
aF0.13216761800485297
aF0.4725440057744722
aF0.12004065860782524
aF0.7608013618305538
aF0.12407596534427787
aF0.15176499359889714
aF1.265708987244307
aF2.184412854154028
aF0.23308295008937976
aF0.4793268749963391
aF3.83279873494582
aF6.882722503920844
aF1.514259176935236
aF12.53748275989004
aF8.109901442720833
aF87.37709863440013
aF22.982335606732857
aI1
aF42.456895878434096
aI1
aF79.21392580354248
aI1
aI1
aI1
aI1
aI1
aI1
assg19
(dp177
g5
(lp178
I1000
aI1172
aI853
aI1610
aI621
aI2212
aI452
aI3039
aI329
aI240
aI4175
aI5736
aI174
aI127
aI7880
aI10826
aI92
aI14874
aI67
aI49
aI20434
aI36
aI28072
aI26
aI38566
aI19
aI52983
aI14
aI72790
aI10
aI100000
asg7
(lp179
F0.009889340344644566
aF0.011346791160542293
aF0.008801678156956335
aF0.015813647363029593
aF0.007500069423090608
aF0.02364342865658495
aF0.007098378138217026
aF0.03735039034652857
aF0.007482525598370515
aF0.008857488700045794
aF0.06172403611633691
aF0.10574523091680182
aF0.01210868969582027
aF0.01944418723605578
aF0.1854491139193283
aF0.3316102770002355
aF0.03923235325674733
aF0.6013263263687605
aF0.10213281091897745
aF0.37178593046359104
aF1.1024874941744158
aF2.140361283751127
aF2.0370728923598684
aF27.907058625421314
aF3.7856820419133137
aI1
aF7.8206395901009165
aI1
aF14.639035997881724
aI1
aF27.462832990563623
asg9
(lp180
F0.006217402820745778
aF0.00714103974702861
aF0.005527739160142415
aF0.009994737139590443
aF0.0047315156146963905
aF0.014945747463808595
aF0.0044659616715109875
aF0.0236671447267508
aF0.004671502700892463
aF0.005520763871106893
aF0.03912799077384407
aF0.06719993959623206
aF0.007547856584719863
aF0.012160538940924847
aF0.11759827152019012
aF0.21020893946960448
aF0.02494681339034773
aF0.38172049243549583
aF0.06757668237032564
aF0.2592407627235838
aF0.701135977572271
aF1.5598118781351922
aF1.2929234035632917
aF21.16960233439273
aF2.4158809187071615
aI1
aF5.059649120413947
aI1
aF9.495065236163812
aI1
aF17.861511798578736
asg11
(lp181
F0.01529295083347867
aF0.01760998983541679
aF0.013546139351060124
aF0.024800473053901446
aF0.011498497638748804
aF0.037273990322422894
aF0.010824877550251015
aF0.05932294359967139
aF0.011383996651174821
aF0.013524023600667257
aF0.09842185397275835
aF0.1690335422283082
aF0.018489721453221003
aF0.02963404597677124
aF0.2958046118216973
aF0.528755838482882
aF0.05917908333614741
aF0.9601729406998603
aF0.1521304098042172
aF0.5438921474286181
aF1.763625096698675
aF3.065429852614574
aF3.268422119994849
aF39.267614181977734
aF6.095333780865753
aI1
aF12.229160410729122
aI1
aF22.87467048940014
aI1
aF42.89042843904716
asg13
(lp182
F0.00986594942519117
aF0.011331602442161429
aF0.00880697023384775
aF0.015796437881160454
aF0.007514652174407296
aF0.023621388747121982
aF0.007092896086277241
aF0.037405344060491494
aF0.0074787864228475776
aF0.008838400944324342
aF0.06159425450025569
aF0.10578437839591334
aF0.012083650799692225
aF0.01946826949463677
aF0.18512010766591033
aF0.3309053866516141
aF0.0391859058134756
aF0.6008943647255154
aF0.10208153825884339
aF0.372938858237176
aF1.103709824802468
aF2.1369644461382213
aF2.0352860342026298
aF27.917157489270004
aF3.776888642375776
aI1
aF7.8090802306874005
aI1
aF14.606901136528055
aI1
aF27.38820863901862
asg15
(lp183
F0.0042392751436368305
aF0.0048690479243662385
aF0.003749842794880487
aF0.006849236737534415
aF0.0031702438860780778
aF0.010242086527072421
aF0.002992315536398211
aF0.016218723401228735
aF0.0030966850032103253
aF0.0036596503910092983
aF0.026947486343861866
aF0.046280665548212085
aF0.005003386659247562
aF0.008061080337623037
aF0.08099004710383577
aF0.1447711066600812
aF0.01668462395964391
aF0.26289128456741295
aF0.045458185005891195
aF0.17627188221366522
aF0.48287304835107975
aF1.151957396746385
aF0.8904376399636506
aF17.12106924146637
aF1.652388781039402
aI1
aF3.568993699181351
aI1
aF6.675810285053838
aI1
aF12.51726722955148
asg17
(lp184
F0.022704383785076998
aF0.026231304066397492
aF0.02016342481118502
aF0.03696211762990482
aF0.01704169239959021
aF0.05590140351679004
aF0.016070767683740113
aF0.0886593931321184
aF0.016929846766958474
aF0.02014799794640578
aF0.14772096836188547
aF0.2537017661485077
aF0.027545860058860304
aF0.044070626549336835
aF0.4439719326813756
aF0.8010681366432477
aF0.08799737466152176
aF1.4546675529851145
aF0.22447143567780398
aF0.7951713723704641
aF2.671902025216082
aF4.446582353518869
aF4.934068345800687
aF56.19853935869051
aF9.169108447569668
aI1
aF18.257648628857265
aI1
aF34.15097048935168
aI1
aF64.0336986089613
assg28
(dp185
g5
(lp186
I1000
aI1172
aI853
aI1610
aI621
aI2212
aI452
aI3039
aI329
aI240
aI4175
aI5736
aI174
aI127
aI7880
aI10826
aI92
aI14874
aI67
aI49
aI20434
aI36
aI28072
aI26
aI38566
aI19
aI52983
aI14
aI72790
aI10
aI100000
asg7
(lp187
F0.010957914147825728
aF0.012575975171493975
aF0.009798485920272817
aF0.01754528323664649
aF0.008350335411241203
aF0.02630090835706916
aF0.007908364584967261
aF0.041548139477096124
aF0.00833211625430873
aF0.009840289216022768
aF0.06859207097768824
aF0.11717991192994388
aF0.013323191257723209
aF0.020930697732107633
aF0.20539967676492527
aF0.3671958271615591
aF0.041038717683881704
aF0.666045586984681
aF0.1042815460139259
aF0.37491930582144706
aF1.2208993747094936
aF2.1403661687357447
aF2.2555525999822876
aF27.90702412793188
aF4.191291205135718
aI1
aF7.821212365398635
aI1
aF14.64010740749983
aI1
aF27.464838003639464
asg9
(lp188
F0.00716498051963945
aF0.008173692480705463
aF0.006398454321316342
aF0.011354991988884513
aF0.005494107103489014
aF0.01704537685684481
aF0.005241626842185945
aF0.026937641759369683
aF0.0055204586646147935
aF0.006516461889908961
aF0.04450194725360451
aF0.07579735151985285
aF0.008722049961512237
aF0.013655152595316931
aF0.13314074421017372
aF0.2378787125755125
aF0.02683693011634894
aF0.43177664801841
aF0.06996477348375017
aF0.26231481992860256
aF0.7894323559706351
aF1.5606548686707509
aF1.46180826826181
aF21.170626845538987
aF2.7126119740684933
aI1
aF5.056825651234673
aI1
aF9.520599566892844
aI1
aF17.85112235337356
asg11
(lp189
F0.016503417421222077
aF0.01895064201872842
aF0.014659839366131546
aF0.02664100344159635
aF0.012439588561320056
aF0.04014707240887175
aF0.011728314771404482
aF0.06377693978560102
aF0.012385426018906399
aF0.01467003097148603
aF0.10590787575448814
aF0.18133678447058776
aF0.019890473767589505
aF0.031338698616694034
aF0.31934361195663624
aF0.5705619642207417
aF0.06136438038472661
aF1.0382905542924528
aF0.15455498254202324
aF0.5483426700357579
aF1.9031995565419992
aF3.0670865449307416
aF3.524194192585078
aF39.269514553452865
aF6.539688940955403
aI1
aF12.222336484242424
aI1
aF22.861592687402744
aI1
aF42.97458929899127
asg13
(lp190
F0.010956789325534138
aF0.012581527396080261
aF0.009784606645552262
aF0.017594116582739155
aF0.008347130080078265
aF0.026237453440675067
aF0.007912181148182654
aF0.04146432944245706
aF0.008333074881246433
aF0.009843786797369391
aF0.06850055466018942
aF0.11698589866716302
aF0.013311170096354755
aF0.0209167932050928
aF0.20548989243459906
aF0.36714284083059645
aF0.040957222581739186
aF0.6664055956981423
aF0.10426622237199953
aF0.37394640300271675
aF1.2184126720571697
aF2.1381193551552458
aF2.256160017634732
aF27.918508550974785
aF4.1866548521631755
aI1
aF7.8047224784352025
aI1
aF14.598549677489224
aI1
aF27.372277832257595
asg15
(lp191
F0.004964795163132656
aF0.005701004601348868
aF0.004433649886265869
aF0.007972334076553681
aF0.0037822933175354636
aF0.01188884609030589
aF0.003585207082770265
aF0.018788524278613352
aF0.0037759245555647894
aF0.004383561308203557
aF0.031039313830398336
aF0.05346621150022685
aF0.005875633675344091
aF0.0091510970272281
aF0.09391530240175035
aF0.16779575147335854
aF0.01807877403022081
aF0.3045681824089166
aF0.04724563201231229
aF0.17820883268098223
aF0.5568526665261284
aF1.1525799648883746
aF1.0311356330596235
aF17.121897822277507
aF1.9134321004027015
aI1
aF3.5670020702223386
aI1
aF6.671993407289997
aI1
aF12.50998635302398
asg17
(lp192
F0.024188205179013374
aF0.027925819125804347
aF0.02149918175357352
aF0.0393366140263692
aF0.01825374424569573
aF0.05919150350505098
aF0.017171504323984992
aF0.09420175576976368
aF0.018204712805725335
aF0.02164592190508472
aF0.15670405106173038
aF0.2692181591338435
aF0.02937972345554813
aF0.046337445159897614
aF0.4732976384431757
aF0.8498917556263448
aF0.09048666300387291
aF1.543946191801207
aF0.2275545332361889
aF0.7990315193238321
aF2.8322606538937265
aF4.448985481031964
aF5.2184895427421925
aF56.20125910888074
aF9.780456894960178
aI1
aF18.24746051203829
aI1
aF34.13144535363707
aI1
aF64.04844698750665
asssS'csccsc'
p193
(dp194
g3
(dp195
g5
(lp196
I1000
aI1172
aI853
aI1610
aI621
aI2212
aI452
aI3039
aI329
aI240
aI4175
aI5736
aI174
aI127
aI7880
aI10826
aI92
aI14874
aI67
aI49
aI20434
aI36
aI28072
aI26
aI38566
aI19
aI52983
aI14
aI72790
aI10
aI100000
asg7
(lp197
F0.3909672552708886
aF0.4722538954951677
aF0.32661544241141544
aF0.7061483226967054
aF0.23529947647632907
aF1.0808041306636729
aF0.17863301122412467
aF1.7060921516376764
aF0.14497167572863368
aF0.12817161357454615
aF2.781607943046291
aF4.686464755939212
aF0.12767884748361
aF0.15126981646590357
aF8.114053691758311
aF14.357444409941378
aF0.23083005888457395
aF25.83406278688338
aF0.48370168638692995
aF1.5088338561981118
aI1
aF7.791341755333582
aI1
aI1
aI1
aI1
aI1
aI1
aI1
aI1
aI1
asg9
(lp198
F0.20432326170407078
aF0.24593002323975396
aF0.17127939790864338
aF0.3661631292445637
aF0.12365044560409041
aF0.5607613370589879
aF0.09425984740125787
aF0.8970349506163818
aF0.0755380769565573
aF0.06625675831138915
aF1.4759506802986966
aF2.507551343960215
aF0.06533646472557204
aF0.0773616833035709
aF4.360942362284082
aF7.710807292350427
aF0.11797256547056972
aF13.915614808346456
aF0.24695024675984886
aF0.7707381214832236
aI1
aF3.9800969331369394
aI1
aI1
aI1
aI1
aI1
aI1
aI1
aI1
aI1
asg11
(lp199
F0.7563809696489034
aF0.9028939728032707
aF0.6307383405799345
aF1.3016387751120557
aF0.4535450939441933
aF1.9241935724019341
aF0.34530590889012797
aF2.9879431631680298
aF0.2819400360523429
aF0.25188346172017656
aF4.824238558435835
aF8.07705935620609
aF0.2521022488784442
aF0.2997081889500879
aF13.979312277865164
aF24.717541564778266
aF0.4570395066227236
aF44.40139509011935
aF0.9605650149949541
aF2.985929382310162
aI1
aF15.419359761556613
aI1
aI1
aI1
aI1
aI1
aI1
aI1
aI1
aI1
asg13
(lp200
F0.3913528547766537
aF0.4710448329156101
aF0.326345116331575
aF0.7085410073866696
aF0.2356369759555007
aF1.0850966985206636
aF0.17866188568049618
aF1.7002568985306339
aF0.1446827043320359
aF0.128209605311657
aF2.7830562718395497
aF4.681105363122447
aF0.12780236844123358
aF0.15132447698730966
aF8.101789280379002
aF14.325191821960471
aF0.23076200007996828
aF25.852526705969876
aF0.48305072145575023
aF1.5076138231114058
aI1
aF7.785328098437872
aI1
aI1
aI1
aI1
aI1
aI1
aI1
aI1
aI1
asg15
(lp201
F0.11618287876181907
aF0.13984143477182176
aF0.09688370641093631
aF0.20481263494770915
aF0.07087518417411545
aF0.31366076441612933
aF0.0530402473113973
aF0.504763766751282
aF0.04295267784857315
aF0.037060589035400854
aF0.8262198307023663
aF1.4079887225016736
aF0.03694287212754408
aF0.0437422316291442
aF2.468513921365477
aF4.364706883253581
aF0.06670464064811583
aF7.876941730725196
aF0.1396318491708028
aF0.43579462074314074
aI1
aF2.2504464034546974
aI1
aI1
aI1
aI1
aI1
aI1
aI1
aI1
aI1
asg17
(lp202
F1.1866588157036075
aF1.428241965070049
aF0.9895426156336378
aF2.147906214998114
aF0.7144830129005199
aF3.181419917047558
aF0.541737999446886
aF4.91449593296716
aF0.43872442877181195
aF0.38878868519579496
aF7.922758354150719
aF13.224342540560578
aF0.38756173554021583
aF0.45890212431923183
aF22.887936361790647
aF40.32212833794514
aF0.6998019956666679
aF72.46622289314458
aF1.4649154435887186
aF4.571945241796962
aI1
aF23.609556512305193
aI1
aI1
aI1
aI1
aI1
aI1
aI1
aI1
aI1
assg19
(dp203
g5
(lp204
I1000
aI1172
aI853
aI1610
aI621
aI2212
aI452
aI3039
aI329
aI240
aI4175
aI5736
aI174
aI127
aI7880
aI10826
aI92
aI14874
aI67
aI49
aI20434
aI36
aI28072
aI26
aI38566
aI19
aI52983
aI14
aI72790
aI10
aI100000
asg7
(lp205
F0.0030183791110716678
aF0.0035347102521551678
aF0.002631257669346028
aF0.0051210296709746994
aF0.0021476440052083856
aF0.007888153332062622
aF0.0019523111896207741
aF0.012754084455462602
aF0.0020031135005043666
aF0.002339286832636667
aF0.021419436096520778
aF0.03704461198099999
aF0.0031542033473589163
aF0.004962406334996589
aF0.06550804250486418
aF0.1178440526305671
aF0.009740896526245959
aF0.2147029290059037
aF0.024923753963498253
aF0.08964376461016546
aF0.3977271861666524
aF0.4856367814128685
aF0.7364604391639153
aF5.15550925057363
aF1.3707471033890186
aI1
aF2.56093196613185
aI1
aF4.797776591854428
aI1
aF9.006216524853011
asg9
(lp206
F0.0016073043674040084
aF0.001869421627854002
aF0.001402917099230531
aF0.002709331668786426
aF0.0011458076684726132
aF0.004165230734657832
aF0.0010415077140305438
aF0.006730338126285306
aF0.0010678987395617461
aF0.0012484522193583947
aF0.011306742557592866
aF0.0196824384415445
aF0.0016796948779615386
aF0.0026410781233809884
aF0.034734291770324485
aF0.0620500671393867
aF0.005202742654191345
aF0.11395570603022359
aF0.013277405773137298
aF0.04767645007960643
aF0.2109856903560958
aF0.2552161141888705
aF0.39040447465727157
aF2.6800641928209528
aF0.7215651111492106
aI1
aF1.3475724161435512
aI1
aF2.5239096031341943
aI1
aF4.736831353304566
asg11
(lp207
F0.005757955349925305
aF0.0067376750622057035
aF0.005004775051752188
aF0.009764836542341448
aF0.004087561221971717
aF0.015075074914502443
aF0.003715481091173855
aF0.024460612089394075
aF0.0038096284857865644
aF0.004453736244336413
aF0.04109300782753953
aF0.07085875028690176
aF0.005992153773816346
aF0.009421797993872875
aF0.1255691850743005
aF0.22551358021929413
aF0.018469325220683723
aF0.41196535419344293
aF0.04736589820118436
aF0.1707945739857152
aF0.7627419378822533
aF0.9322456250108828
aF1.4113652212877998
aF10.054261684671538
aF2.6247488954013747
aI1
aF4.901898880771596
aI1
aF9.219259678298334
aI1
aF17.30255245441063
asg13
(lp208
F0.0030165034084246594
aF0.0035445670582988044
aF0.0026329202467116858
aF0.005137101037078672
aF0.0021503909324461965
aF0.007897597541561616
aF0.001954646321497873
aF0.012761238266526843
aF0.0020041755955303147
aF0.0023430287699848723
aF0.02143845273273944
aF0.037121799404427884
aF0.00315236207107925
aF0.004956635048507917
aF0.0655101457770227
aF0.11765169540697969
aF0.009716372466234012
aF0.21492463308382448
aF0.02491832946014679
aF0.089476627503353
aF0.39792673544310736
aF0.4863577568910095
aF0.7363171305151073
aF5.1595290212300675
aF1.3750651679056314
aI1
aF2.5680286671818484
aI1
aF4.809739451904698
aI1
aF9.02683860337796
asg15
(lp209
F0.0009190908822543884
aF0.001079985275575417
aF0.0008022178876699669
aF0.001565210472234908
aF0.0006551972372297005
aF0.002406299250944555
aF0.0005955563010813831
aF0.0038881897843323974
aF0.0006106472517631429
aF0.0007138915783547658
aF0.006532028567006548
aF0.011165541227113076
aF0.0009604853185319589
aF0.001510224741342256
aF0.019704223534495115
aF0.03584700094431413
aF0.0029984118157519025
aF0.06464529979474408
aF0.007592303507388476
aF0.02726240994242787
aF0.11968890089499713
aF0.14628729406487395
aF0.22147038691274712
aF1.5115807679384965
aF0.4135938200341157
aI1
aF0.7724148725507904
aI1
aF1.4466794445182098
aI1
aF2.715103798672277
asg17
(lp210
F0.009146068457566237
aF0.010746941265606328
aF0.007982876170202264
aF0.015575420875952956
aF0.006519872738184324
aF0.023945594120842198
aF0.005926385186123849
aF0.038692996966413484
aF0.006076555424624886
aF0.007103940592656116
aF0.0650029361015586
aF0.11255366107316199
aF0.009557796441234003
aF0.015028258447251303
aF0.19863148313268986
aF0.3567284193093721
aF0.029459532028683198
aF0.6516670036561308
aF0.07555107074621657
aF0.27129401811539056
aF1.2065425950317383
aF1.4746718013528828
aF2.23256670710691
aF15.645349557043955
aF4.169211185315289
aI1
aF7.78628831078038
aI1
aF14.58347678405838
aI1
aF27.370025449855255
assg28
(dp211
g5
(lp212
I1000
aI1172
aI853
aI1610
aI621
aI2212
aI452
aI3039
aI329
aI240
aI4175
aI5736
aI174
aI127
aI7880
aI10826
aI92
aI14874
aI67
aI49
aI20434
aI36
aI28072
aI26
aI38566
aI19
aI52983
aI14
aI72790
aI10
aI100000
asg7
(lp213
F0.0030394407843626634
aF0.0035589224651724227
aF0.0026502169732135327
aF0.005155744326799803
aF0.0021649787407152093
aF0.007942131938041868
aF0.0019713440549906074
aF0.012842903358125608
aF0.002028384174442415
aF0.0023791483710388465
aF0.0215704201969174
aF0.03731115853592953
aF0.0032281007771206884
aF0.005118599899503409
aF0.06598934649801445
aF0.1187105896666402
aF0.01013923307971362
aF0.21628708394351506
aF0.02618093790897257
aF0.09482819859673616
aF0.39773012176733824
aF0.5156512232353673
aF0.736465914305649
aF5.155804163294124
aF1.370757347845428
aI1
aF2.5609511791134913
aI1
aF4.797812687081258
aI1
aF9.006284419462222
asg9
(lp214
F0.0016213948149418462
aF0.001888084970798486
aF0.0014007565624910732
aF0.002723120648332778
aF0.0011560813930228445
aF0.0041877590818657105
aF0.00105159983159836
aF0.006768740106823966
aF0.0010797303809492074
aF0.0012649867792824572
aF0.011374087331593395
aF0.01980359636010548
aF0.0017232485216773818
aF0.0027446371516213113
aF0.03476835220338059
aF0.06302643889339116
aF0.0054279737901216174
aF0.11469775916506249
aF0.014031249028995652
aF0.0504612273121174
aF0.20937351796815992
aF0.27143529281510753
aF0.387439442228737
aF2.6739909368232264
aF0.7207812917056499
aI1
aF1.353149000195006
aI1
aF2.5344005729304278
aI1
aF4.7565841955816905
asg11
(lp215
F0.00578417385925063
aF0.006798468889839366
aF0.005048536034441538
aF0.009855695435893978
aF0.004124211793575231
aF0.015156610979007303
aF0.003751483795967165
aF0.0246001795125748
aF0.0038518367789507385
aF0.004512721763946251
aF0.04133776437975176
aF0.07159269211308288
aF0.006117395883383672
aF0.009702381968226897
aF0.12636143593683208
aF0.2278491365353908
aF0.01918806462055444
aF0.41464797705783185
aF0.0496009221149497
aF0.18001569160343073
aF0.7616123301414336
aF0.9873668594552192
aF1.4093408719884013
aF10.031477661554598
aF2.6328477786975375
aI1
aF4.917147375150393
aI1
aF9.209644409424659
aI1
aF17.284737666447466
asg13
(lp216
F0.0030429476114555796
aF0.003561612361011156
aF0.002655942080760762
aF0.005163246001884531
aF0.0021696721126330224
aF0.007940313019012591
aF0.0019735866713525233
aF0.01283405137254992
aF0.0020263805912338847
aF0.002374059953237546
aF0.021566143599216086
aF0.03735030767399196
aF0.00321824960437276
aF0.005125742059975329
aF0.06592346748063736
aF0.11887017092544268
aF0.010137002459518133
aF0.21632417246004187
aF0.026204033294319477
aF0.09470294940226019
aF0.39899688495380425
aF0.5172661631268068
aF0.7383318198866679
aF5.147837084649756
aF1.37357146650833
aI1
aF2.565303389649105
aI1
aF4.804723189781843
aI1
aF9.01754467417749
asg15
(lp217
F0.0009271481003653719
aF0.0010851787662455865
aF0.0008092323527317946
aF0.0015731765161991931
aF0.0006610719718178741
aF0.0024193141229803985
aF0.000601327188927722
aF0.003910375027573804
aF0.0006174128363915743
aF0.0007233463920020649
aF0.006570934377886151
aF0.011234272230067895
aF0.0009931317138494064
aF0.0015817719638205117
aF0.0200860564980067
aF0.035753918598668305
aF0.003128215602741924
aF0.06506625499774697
aF0.008086400899418901
aF0.02885480489600115
aF0.12001078180251144
aF0.15558396312798486
aF0.2220763677002868
aF1.508155395893483
aF0.4131445426607086
aI1
aF0.7715951601678949
aI1
aF1.4451706469265697
aI1
aF2.712308359029948
asg17
(lp218
F0.009226057752141218
aF0.010798844329490806
aF0.008052677537370934
aF0.01565501243009572
aF0.006578332034577773
aF0.024075107872376923
aF0.005983811619366035
aF0.0389137715677197
aF0.006143879583236414
aF0.007198025246053515
aF0.06539010402537328
aF0.11324882460190558
aF0.009757564110189153
aF0.0155406626161318
aF0.19988470432501249
aF0.36042293989104124
aF0.03073422995518971
aF0.6559105080823668
aF0.07944762610490519
aF0.28713437141170345
aF1.2097624909004794
aF1.5683561211706947
aF2.238629360829708
aF15.609896297160008
aF4.164767696295426
aI1
aF7.778184789734025
aI1
aF14.568267045698406
aI1
aF27.341845455179683
asssS'datacard'
p219
(dp220
g3
(dp221
g5
(lp222
I1000
aI1172
aI853
aI1610
aI621
aI2212
aI452
aI3039
aI329
aI240
aI4175
aI5736
aI174
aI127
aI7880
aI10826
aI92
aI14874
aI67
aI49
aI20434
aI36
aI28072
aI26
aI38566
aI19
aI52983
aI14
aI72790
aI10
aI100000
asg7
(lp223
F0.029386997189711855
aF0.034546530185618894
aF0.025457539159130665
aF0.05017267826268846
aF0.020338559824131436
aF0.07717156027601019
aF0.01790013671112718
aF0.12442316369304558
aF0.017749967626719945
aF0.02039758986391511
aF0.20835069633982176
aF0.3594476362785326
aF0.0284070798125743
aF0.049239529161814066
aF0.6344217254237482
aF1.1394924075686188
aF0.11245539864577497
aF2.0737107259742125
aF0.3326119120862464
aF1.3017440003667886
aF4.115325898725785
aF7.790550422248097
aF7.617604232568963
aI1
aF14.174852682259438
aI1
aI1
aI1
aI1
aI1
aI1
asg9
(lp224
F0.015018629095986754
aF0.01765286747553093
aF0.013009932524934726
aF0.02563436287853391
aF0.010379866517456003
aF0.039462836009428806
aF0.009144639819874581
aF0.06348732337093392
aF0.00906532419825043
aF0.010426975246077398
aF0.10680604395057361
aF0.18435579756212067
aF0.014511950818140268
aF0.02519061755936962
aF0.324102127315778
aF0.5871594114025495
aF0.057569342073232506
aF1.0600178928519504
aF0.17051765036608268
aF0.6648576435484183
aF2.108109869957343
aF3.986023440576967
aF3.8977006286610036
aI1
aF7.246741748523678
aI1
aI1
aI1
aI1
aI1
aI1
asg11
(lp225
F0.05818392161845911
aF0.06838927233972157
aF0.0504019974395403
aF0.09931051575014202
aF0.0403746784356497
aF0.15288363141114109
aF0.0354274038146859
aF0.24694732607522912
aF0.0351201237979747
aF0.0403953194498437
aF0.41320002818090057
aF0.7132164143169037
aF0.05622099342519428
aF0.09759139208006946
aF1.2556094751884135
aF2.259333994091085
aF0.22303035613092106
aF4.106633001049827
aF0.6596808179561472
aF2.5757360607832993
aF8.167063689587957
aF15.44231994722368
aF15.100147165415796
aI1
aF28.18772948733766
aI1
aI1
aI1
aI1
aI1
aI1
asg13
(lp226
F0.02937741393369711
aF0.034530155291200904
aF0.025448272980961147
aF0.05014247867739966
aF0.020303693054202383
aF0.07719187024575949
aF0.017887509408885522
aF0.12418532785451068
aF0.01773236290163981
aF0.020395840786978522
aF0.20779080022397411
aF0.35866358573386986
aF0.028386318314757658
aF0.04927448401297897
aF0.6339648106425151
aF1.136178079180273
aF0.11260937207830007
aF2.0734638438976067
aF0.3317415167841713
aF1.3005047316018725
aF4.123599822036904
aF7.796920731902223
aF7.624155575451515
aI1
aF14.17509751764708
aI1
aI1
aI1
aI1
aI1
aI1
asg15
(lp227
F0.00849190871520932
aF0.009981373013862762
aF0.007356141408559082
aF0.01449431024268584
aF0.005869036273480376
aF0.022313274992914855
aF0.005170608188505971
aF0.035897321332944494
aF0.005125761151255257
aF0.005895672727485979
aF0.06006452818974251
aF0.10367619275119676
aF0.008205420137859635
aF0.014243405535001733
aF0.183255453076352
aF0.32842647601304764
aF0.032551146616383614
aF0.599360642376652
aF0.09589403219542451
aF0.3759271489786663
aF1.1919780735575425
aF2.2537973990654865
aF2.2038574710289534
aI1
aF4.097489126194859
aI1
aI1
aI1
aI1
aI1
aI1
asg17
(lp228
F0.08908908042641878
aF0.10471512598767013
aF0.07717368065562896
aF0.1520605916758003
aF0.06157364354742115
aF0.23408978884457401
aF0.05424513196620653
aF0.37660849029366733
aF0.053774637387672075
aF0.06185182509215508
aF0.6301532020654922
aF1.087694900369206
aF0.08608351376278564
aF0.14942833993859678
aF1.9225428926879615
aF3.4456108452131837
aF0.34149585342600447
aF6.287925195870007
aF1.0060501923113185
aF3.9438723155977904
aF12.505106941140404
aF23.6447103763984
aF23.12078885477743
aI1
aF42.98786453001597
aI1
aI1
aI1
aI1
aI1
aI1
assg19
(dp229
g5
(lp230
I1000
aI1172
aI853
aI1610
aI621
aI2212
aI452
aI3039
aI329
aI240
aI4175
aI5736
aI174
aI127
aI7880
aI10826
aI92
aI14874
aI67
aI49
aI20434
aI36
aI28072
aI26
aI38566
aI19
aI52983
aI14
aI72790
aI10
aI100000
asg7
(lp231
F0.002629298284980691
aF0.00305758164953935
aF0.0023085239425516164
aF0.004373176103984978
aF0.001910706877348469
aF0.006664280351989661
aF0.0017604227153818564
aF0.010685629868223362
aF0.0018215549311654652
aF0.00213791668989493
aF0.017837427904476708
aF0.03069868280744845
aF0.002916412521422272
aF0.004665254995681531
aF0.05410483210488265
aF0.09708337154198571
aF0.00935248381779809
aF0.17655719833041303
aF0.02438967030406898
aF0.08885829525166097
aF0.32607143259937266
aF0.48563317581110366
aF0.603202085891263
aF5.15550575029668
aF1.121942257763734
aI1
aF2.2512892137028433
aI1
aF4.216022221233367
aI1
aF7.91191213542958
asg9
(lp232
F0.001415217761336681
aF0.0016476820641085123
aF0.0012450255570234754
aF0.002362969282891314
aF0.001021815595774354
aF0.003639527019544855
aF0.0009380268011419594
aF0.005849023369693962
aF0.0009689142183017515
aF0.0011397147523810752
aF0.009789545669766775
aF0.016862445422153847
aF0.0015504952109362863
aF0.0024840593127851067
aF0.02961878207264377
aF0.0532679062204695
aF0.0049796111608848646
aF0.0968843773840127
aF0.013009555204511095
aF0.04714548592709785
aF0.17895610321449584
aF0.25476232457437875
aF0.3309667383848385
aF2.679260573425066
aF0.6160860788852195
aI1
aF1.2428285070328933
aI1
aF2.3239596579683033
aI1
aF4.3769287408254876
asg11
(lp233
F0.0049155376173883785
aF0.005674143187796506
aF0.004324401592288102
aF0.00809788925689964
aF0.0035993672197618836
aF0.012297526455773611
aF0.003332288218959917
aF0.01967775720730688
aF0.003456510378691114
aF0.004065825290895938
aF0.03277906418212383
aF0.05646178297050323
aF0.005554444157973668
aF0.008861648202388212
aF0.09922457103317397
aF0.17836089588391607
aF0.017764295897779378
aF0.3229973917889586
aF0.04641036615070917
aF0.16904880343281653
aF0.5966117324745094
aF0.9305880361704217
aF1.1033914881478226
aF10.051246906248405
aF2.0539349213188096
aI1
aF4.087950800100452
aI1
aF7.6440415467081495
aI1
aF14.392304594819164
asg13
(lp234
F0.002630096166259095
aF0.003062116939468451
aF0.0023138043019819213
aF0.004370119509074533
aF0.001917689200591869
aF0.006665177520619561
aF0.0017604388442050243
aF0.010711495991624197
aF0.0018184067070625312
aF0.002138956071364437
aF0.017843132300974396
aF0.03073470973373775
aF0.002909887002975958
aF0.004661950490340342
aF0.05424784813349679
aF0.09708992941552701
aF0.009345469560130312
aF0.17658845689839406
aF0.024415641749222197
aF0.08893346858897833
aF0.32617830627058625
aF0.48549298352156106
aF0.6032438582375341
aF5.157981932318463
aF1.1229229409784667
aI1
aF2.2546091191083346
aI1
aF4.215883854969017
aI1
aF7.902975588459862
asg15
(lp235
F0.0008219050519559673
aF0.000956911543583891
aF0.0007230638443693505
aF0.001382733125918114
aF0.0005842959283053351
aF0.002108903824883533
aF0.0005363837103437184
aF0.0033891842785998432
aF0.000554045793558115
aF0.0006517131779938519
aF0.005715378315155861
aF0.009844711711587873
aF0.0008866061962192372
aF0.0014204380400255731
aF0.01737626385526069
aF0.031099118015910993
aF0.0028474477566022044
aF0.056563490100266844
aF0.0074391408454661375
aF0.027096916210704335
aF0.10447898872729716
aF0.14602718644984453
aF0.19322654834171013
aF1.5111275192339249
aF0.3596862545321651
aI1
aF0.7309865503359053
aI1
aF1.366868593603236
aI1
aF2.593163864963392
asg17
(lp236
F0.00797365880927539
aF0.00928303409775782
aF0.00701475706845005
aF0.013248340668345246
aF0.005813974678009412
aF0.020205562831455495
aF0.005337448582860368
aF0.03247135825177699
aF0.005513313862297023
aF0.006485202682098387
aF0.05409055036919405
aF0.09317071826742584
aF0.008822805858882963
aF0.014134789710298058
aF0.16444622050665295
aF0.29432319749895447
aF0.028334974981528135
aF0.5353079499286069
aF0.07402694409348116
aF0.269641608338732
aF0.9887726921455723
aF1.4720497461179904
aF1.8286655836691381
aF15.640658286441875
aF3.40401418515939
aI1
aF6.83431216841081
aI1
aF12.779450808757673
aI1
aF23.956486138297237
assg28
(dp237
g5
(lp238
I1000
aI1172
aI853
aI1610
aI621
aI2212
aI452
aI3039
aI329
aI240
aI4175
aI5736
aI174
aI127
aI7880
aI10826
aI92
aI14874
aI67
aI49
aI20434
aI36
aI28072
aI26
aI38566
aI19
aI52983
aI14
aI72790
aI10
aI100000
asg7
(lp239
F0.002861521658013701
aF0.003323155235985839
aF0.002516594584189482
aF0.004743639336119203
aF0.0020913687574220883
aF0.007219937127859407
aF0.001934054972338366
aF0.01156692744808687
aF0.002014409619576649
aF0.002374837430396811
aF0.01929236011067721
aF0.03320000380175889
aF0.003222909443782625
aF0.005117774209833262
aF0.05849943168375986
aF0.10495218657324672
aF0.010138884069377628
aF0.19084529698833563
aF0.026179657804692884
aF0.09482798172270794
aF0.35044786106673426
aF0.5156508542959191
aF0.648248425542069
aF5.155802726536616
aF1.2056631509206546
aI1
aF2.2512931030545853
aI1
aF4.216029496301163
aI1
aF7.911925769880079
asg9
(lp240
F0.001548372087242536
aF0.0018146286221677884
aF0.0013675740599774055
aF0.002585946389332661
aF0.0011265668141911874
aF0.003967167837260472
aF0.0010382158768069086
aF0.006357469198576823
aF0.00107660596604414
aF0.0012666834093030283
aF0.010620852611762979
aF0.01833540721998255
aF0.001725095547716518
aF0.002742042241845516
aF0.03232621230226941
aF0.05782082054821264
aF0.005422313253145607
aF0.10510741190912745
aF0.014016404305959318
aF0.050575410574630046
aF0.19332448883709336
aF0.27267656295942516
aF0.3574475860757333
aF2.6736660674733854
aF0.6652198700139661
aI1
aF1.2453672479828826
aI1
aF2.3258479965953383
aI1
aF4.3804085067076715
asg11
(lp241
F0.005306266620259878
aF0.006131413223949495
aF0.004662986226448791
aF0.008705396956811603
aF0.003912953660188358
aF0.013168273427495047
aF0.003639212457876131
aF0.021102433413622793
aF0.003805837194659396
aF0.004499822547726614
aF0.035088043920841264
aF0.06057456676688678
aF0.006123952551811226
aF0.009693208564675026
aF0.10632839560977511
aF0.19102227594535917
aF0.019248783076588963
aF0.34724268126970864
aF0.04975712733315413
aF0.18042303076153998
aF0.6358889849128966
aF0.9867460608733766
aF1.1757278773152744
aF10.030258914108236
aF2.188062262239004
aI1
aF4.095041411504047
aI1
aF7.650252259631153
aI1
aF14.340693452390644
asg13
(lp242
F0.0028635882466849206
aF0.003323185083060084
aF0.0025164345685837614
aF0.0047593962753118765
aF0.0020936559305476878
aF0.007230846350614704
aF0.001938918149504661
aF0.01158758208360025
aF0.0020106134899882814
aF0.0023772440982841713
aF0.01926723680353481
aF0.03326217260612236
aF0.003221699014452004
aF0.005120895941000448
aF0.05864282371260389
aF0.10489246790255394
aF0.010126431134108927
aF0.19067484213244135
aF0.026176310059140256
aF0.09491724248049699
aF0.35070901014304795
aF0.5169409363912433
aF0.6484439185367673
aF5.147211662003872
aF1.2067721143009267
aI1
aF2.2486331266201836
aI1
aF4.2193094808412805
aI1
aF7.909258648214513
asg15
(lp243
F0.0009060572186776506
aF0.0010514765301869798
aF0.0007863858026824254
aF0.0015244941194358353
aF0.0006542674782961524
aF0.002316130471681272
aF0.000598338022698704
aF0.0037116473861532055
aF0.0006204627566760712
aF0.0007243165611959585
aF0.006246799432396052
aF0.010784220024641234
aF0.0009941961802410481
aF0.001580276481793107
aF0.01901310300057079
aF0.03400810482778116
aF0.003124953357791427
aF0.06182035897262747
aF0.008077845682312814
aF0.02892009731827643
aF0.11370643688231634
aF0.15548614102392863
aF0.21023767671309254
aF1.5079721666026968
aF0.3912581464335036
aI1
aF0.7378327446722478
aI1
aF1.367979245741509
aI1
aF2.595225493945387
asg17
(lp244
F0.008681179241915062
aF0.010074274186904871
aF0.007628757780969295
aF0.01442757296296662
aF0.006347333202422664
aF0.021919043767531718
aF0.0058783359778113485
aF0.03512572470699133
aF0.006095949710179912
aF0.007207531777931553
aF0.0584052508183615
aF0.10082845025391114
aF0.009768022416446066
aF0.015525969353750781
aF0.1777617932587326
aF0.3179631359366223
aF0.03070280995789074
aF0.5779973943011925
aF0.0793652019886549
aF0.28778411075912336
aF1.06309105855807
aF1.5673700304927232
aF1.9656036825094934
aF15.607999814718235
aF3.6580431661458337
aI1
aF6.816337123060373
aI1
aF12.789834804729026
aI1
aF23.975039517216995
asss.