(dp0
S'csccsc'
p1
(dp2
S'high'
p3
(dp4
S'ctau'
p5
(lp6
sS'limit'
p7
(lp8
sS'16.0'
p9
(lp10
sS'84.0'
p11
(lp12
sS'50.0'
p13
(lp14
sS'2.5'
p15
(lp16
sS'97.5'
p17
(lp18
ssS'comb'
p19
(dp20
g5
(lp21
sg7
(lp22
sg9
(lp23
sg11
(lp24
sg13
(lp25
sg15
(lp26
sg17
(lp27
ssS'low'
p28
(dp29
g5
(lp30
sg7
(lp31
sg9
(lp32
sg11
(lp33
sg13
(lp34
sg15
(lp35
sg17
(lp36
sssS'cscdt'
p37
(dp38
g3
(dp39
g5
(lp40
I1000
aI1172
aI853
aI621
aI1610
aI452
aI2212
aI329
aI3039
aI240
aI4175
aI5736
aI174
aI127
aI7880
aI10826
aI92
aI14874
aI67
aI49
aI20434
aI36
aI28072
aI26
aI38566
aI19
aI52983
aI14
aI72790
aI10
aI100000
asg7
(lp41
F0.14577524639991246
aF0.17373957905558285
aF0.12531565908535247
aF0.09894546511347935
aF0.2580228160360426
aF0.08695141859284224
aF0.4072936286897612
aF0.08779923916486757
aF0.6707124355646619
aF0.10593211845207703
aF1.1405412991153205
aF2.0001183507175844
aF0.1628482117116999
aF0.3380578312845961
aF3.5657417689714337
aF6.453899131647305
aF1.0236566988406242
aF11.81991169305297
aF4.73832892893916
aF38.18224393315835
aF21.75378207753889
aF634.865410067454
aF40.48737902217769
aF37826.57160619747
aF75.46854889349363
aF8729976.941727566
aF141.1837903067081
aF13703266499.7419
aF264.755652434739
aF1337689098528486.5
aF497.3390952424772
asg9
(lp42
F0.09904330143973765
aF0.1182879193029203
aF0.08492876258942196
aF0.06641281087622733
aF0.17647220879103087
aF0.05813072528137112
aF0.2783162556729482
aF0.05815405498900974
aF0.45917922133733763
aF0.06898081466041381
aF0.7814059073239676
aF1.374006468936518
aF0.10412752496990944
aF0.21218720540069375
aF2.451933535640089
aF4.441081638260823
aF0.6796599049444948
aF8.128389419461543
aF3.313376544006211
aF27.414730395442138
aF15.018603980732987
aF458.0711513132897
aF27.901433987781235
aF26677.26075225755
aF52.05663051185549
aF5760363.057375168
aF97.49494101517104
aF9034967302.425081
aF182.63589127343087
aF884060062443476.0
aF343.70024075437846
asg11
(lp43
F0.22796556194772064
aF0.2705801265868425
aF0.1959773010903341
aF0.15494394709473988
aF0.400157191744875
aF0.13697825062628458
aF0.6262237551002721
aF0.13921920112899208
aF1.0267829024905595
aF0.1693477588589119
aF1.7417290789248163
aF3.037558969814832
aF0.2629424271942727
aF0.5374986381061078
aF5.406371626171646
aF9.766617608859375
aF1.605161061373006
aF17.87557258246923
aF7.283743158037864
aF57.7992423832589
aF32.94126197804602
aF956.4509627247933
aF61.14002322680778
aF57719.47697611084
aF113.7706867457073
aF13864407.340873137
aF213.0769105370093
aF22073042619.480434
aF399.15395671309966
aF2151568982583454.8
aF749.1803333405178
asg13
(lp44
F0.14594167198387098
aF0.17366631747471178
aF0.12514370413392295
aF0.09894134970639769
aF0.2581536311457366
aF0.087026115041117
aF0.4071369225844271
aF0.0877829405693694
aF0.6692933910761033
aF0.10598102657503938
aF1.1412510595111325
aF1.9955431244620079
aF0.16292859985741537
aF0.3380634193888235
aF3.561074288443154
aF6.45002052666123
aF1.0249952027439804
aF11.80529494268752
aF4.74780140781859
aF38.2722343898197
aF21.812322278196017
aF634.9976938080158
aF40.37778513940801
aF37721.605261498895
aF75.33417253069295
aF8720113.49275014
aF141.0905899035077
aF13677252543.92798
aF264.30300248411356
aF1333189752227337.8
aF497.38857435143194
asg15
(lp45
F0.0718306666795615
aF0.0861547746847203
aF0.0615941668784152
aF0.04753822661674577
aF0.1290768155728683
aF0.0407934914255236
aF0.20356846129221354
aF0.039776644945495515
aF0.3372611228469427
aF0.046780687511638476
aF0.579541553657997
aF1.0133617428908634
aF0.07000838275123317
aF0.1439410652866475
aF1.8083580371000392
aF3.275401048695156
aF0.4724587262648034
aF5.994876338083507
aF2.522269497903626
aF21.52813184427358
aF11.076569906896415
aF362.14712224988403
aF20.662069739306443
aF20481.652856829478
aF38.54990859969053
aF4155679.0863887384
aF72.19870030218557
aF6518065665.465678
aF135.24880205241746
aF640556013765478.8
aF254.5230595313968
asg17
(lp46
F0.35105138893257615
aF0.41744344161294233
aF0.3041216793499446
aF0.242725299337411
aF0.6136288364542131
aF0.21377098501892217
aF0.9560330680115031
aF0.21804385263343376
aF1.5585776960360513
aF0.2661206487792821
aF2.6398161069068924
aF4.588371728842233
aF0.4100711005729059
aF0.8325667276684587
aF8.181082459042301
aF14.728558958350304
aF2.467302159844903
aF26.957275085072762
aF11.251770525391576
aF88.69158209738212
aF49.76509245450353
aF1466.532505270979
aF92.20227968599364
aF89329.12909481961
aF171.8758752018284
aF21870867.28494508
aF321.05640258453775
aF35643793323.21172
aF603.0106575723997
aF3474377512424078.5
aF1130.8331883866438
assg19
(dp47
g5
(lp48
I1000
aI1172
aI853
aI621
aI1610
aI452
aI2212
aI329
aI3039
aI240
aI4175
aI5736
aI174
aI127
aI7880
aI10826
aI92
aI14874
aI67
aI49
aI20434
aI36
aI28072
aI26
aI38566
aI19
aI52983
aI14
aI72790
aI10
aI100000
asg7
(lp49
F0.03235603801126851
aF0.03523332214928029
aF0.030728080510728135
aF0.031100745498746276
aF0.0454271754078861
aF0.0371498340891205
aF0.06433888676147229
aF0.05295069590853033
aF0.09820647215466646
aF0.08509447393581866
aF0.1578534479750569
aF0.2648873804867047
aF0.15434440623143214
aF0.3355961786624759
aF0.4584686118232153
aF0.8121150218452895
aF1.0217917277687008
aF1.463331090946349
aF4.742496690921576
aF38.10660723888955
aF2.6730803358295026
aF632.5972852173044
aF4.921215060708899
aF37529.29875229237
aF9.12157792531586
aF8666780.279315969
aF16.990247084072724
aF13604206583.160923
aF31.760781801741647
aF1331466539064656.5
aF59.525560194087824
asg9
(lp50
F0.02147169041695995
aF0.023332203500180004
aF0.02041152823609072
aF0.020670105381865075
aF0.030104420539523877
aF0.024621613786743837
aF0.042691347930127146
aF0.03478766290986127
aF0.06506136221367674
aF0.05562370514980739
aF0.10464132797727178
aF0.17557211665148553
aF0.09887977843812908
aF0.2109486731279906
aF0.3038191413921322
aF0.537727900745122
aF0.6781374709109665
aF0.9695840485164084
aF3.302894777620539
aF27.342735907049
aF1.7653171627654094
aF456.499054545221
aF3.2545031224196066
aF26536.474054583694
aF6.036947840614506
aF5740330.860465581
aF11.25859437313022
aF8975036635.02277
aF21.02641461161305
aF878752231577872.5
aF39.380183641938046
asg11
(lp51
F0.05103856564151241
aF0.05546103916571175
aF0.048395672167225984
aF0.04882424685328259
aF0.07173992774754992
aF0.05837777429791998
aF0.10147804919576399
aF0.08205459197904458
aF0.1546519513483201
aF0.1328673183359572
aF0.2493640913554737
aF0.41839473081286466
aF0.24701167490054887
aF0.5341015828235625
aF0.7240120716119522
aF1.2814251426732188
aF1.6056420479292208
aF2.31055401978133
aF7.279801754300927
aF57.59594457243004
aF4.212106499207595
aF953.1684018954038
aF7.755599869064478
aF57414.86774958585
aF14.386266516815132
aF13746917.43740371
aF26.761867748590944
aF21977392197.75458
aF50.10671376039293
aF2146851768705990.0
aF93.84441551383077
asg13
(lp52
F0.032426230601112715
aF0.03523595005502343
aF0.030825189291189083
aF0.031098164056609496
aF0.04546325247668533
aF0.03718319847746438
aF0.06447184482322824
aF0.05293592171590666
aF0.09825471089583185
aF0.0850605548977454
aF0.15802779220016785
aF0.26514642448317255
aF0.15458456964983844
aF0.33592681737172553
aF0.4588231922360304
aF0.8120687552592939
aF1.0226992197537994
aF1.464251548612115
aF4.7452322024320335
aF38.03722225439107
aF2.676069244517808
aF632.8183864683053
aF4.914902678377992
aF37522.53308969529
aF9.116909707865062
aF8689788.489131302
aF17.002563389193984
aF13617984833.136974
aF31.75378163855362
aF1330266706289555.8
aF59.471373286894
asg15
(lp53
F0.015326460557557181
aF0.016654492018194668
aF0.01456971837591359
aF0.014820218808227962
aF0.0214884904284333
aF0.017574871155364023
aF0.030473020404728973
aF0.024606932360128484
aF0.04644070319685802
aF0.03854306393804089
aF0.07469282365711058
aF0.1253231146971245
aF0.06763074922180431
aF0.14434355433941332
aF0.21686564945531123
aF0.38382937260302563
aF0.47140042160526685
aF0.692087646023695
aF2.520904607542018
aF21.54452041752619
aF1.2544074583677225
aF360.9042360327054
aF2.323059469077098
aF20373.562888545486
aF4.309164354108096
aF4141227.3268516357
aF8.03636785192372
aF6543016150.296281
aF15.00862335259761
aF633955227216116.5
aF28.10951628013349
asg17
(lp54
F0.07890860235120463
aF0.08574600084147779
aF0.07496162279578031
aF0.07491075703036443
aF0.11070898263949953
aF0.08871413371247927
aF0.15689098437538027
aF0.12459514936532701
aF0.23910093358041024
aF0.20264112354776345
aF0.3812062675864547
aF0.6396057239074122
aF0.3811946523148012
aF0.8273048304841828
aF1.106807075357944
aF1.958932101245347
aF2.4635272170182536
aF3.5321754138300205
aF11.24568193426334
aF88.21863197333482
aF6.420160363739718
aF1457.7059552684977
aF11.85609064688034
aF88193.41721651632
aF21.888286285161414
aF21571286.17108544
aF40.59602107735324
aF35185698019.393074
aF75.87299914138957
aF3437099133443205.5
aF142.78154906991188
assg28
(dp55
g5
(lp56
I1000
aI1172
aI853
aI621
aI1610
aI452
aI2212
aI329
aI3039
aI240
aI4175
aI5736
aI174
aI127
aI7880
aI10826
aI92
aI14874
aI67
aI49
aI20434
aI36
aI28072
aI26
aI38566
aI19
aI52983
aI14
aI72790
aI10
aI100000
asg7
(lp57
F0.03388371315865754
aF0.03664547060851917
aF0.03256658377428698
aF0.034126208013879014
aF0.046759037625210005
aF0.04397211283069715
aF0.06574033084656583
aF0.07430374202483819
aF0.0999618859778958
aF0.1740060465703568
aF0.1605157474230491
aF0.2689467091111773
aF0.6423086096883501
aF4.246988064237004
aF0.4650160142346378
aF0.8231193998656706
aF32.05572856950717
aF1.4838643658346051
aF83.34337195700454
aF441.64881062081946
aF2.7052300085134595
aF5628.642010481882
aF4.978759155091042
aF285677.93412351026
aF9.214033959004723
aF66001249.359580345
aF17.149319840681052
aF112496054389.62073
aF32.12876044433433
aF1.1859626385612532e+16
aF60.200535332257104
asg9
(lp58
F0.022381426151532886
aF0.024142568368094558
aF0.021464306301535955
aF0.022465628117510805
aF0.030785990866113087
aF0.02902626756181114
aF0.0433752209432795
aF0.049002340301100164
aF0.06594539120698388
aF0.11503932791119982
aF0.10589039420503545
aF0.1774704203166394
aF0.42722270580907934
aF2.863986710266853
aF0.30686557615964855
aF0.5428155810232819
aF27.993662159077296
aF0.9783904139082242
aF62.28241934363687
aF331.350917928618
aF1.783051647720055
aF4205.725231947377
aF3.282460776405212
aF213620.46353816075
aF6.088015520432221
aF49354355.06409662
aF11.323717755527476
aF84122220399.86351
aF21.146081893917156
aF8868384220688668.0
aF39.7037130440899
asg11
(lp59
F0.05367332420445281
aF0.05789675060159013
aF0.051603657155637264
aF0.0540109972094922
aF0.07401449533011323
aF0.06960844272636532
aF0.10428103345091819
aF0.1172173452646893
aF0.15814489419240788
aF0.27414290783639134
aF0.2539377548167928
aF0.42559519048502226
aF1.0091301234025976
aF6.514768551529407
aF0.7359001292939437
aF1.3017363231763108
aF38.612321636709844
aF2.3403845564314056
aF113.84857585539613
aF601.3216919011777
aF4.275970086233972
aF7665.395057899808
aF7.871731751767866
aF389346.70126167015
aF14.562998319372136
aF89953719.87698418
aF27.15562102874706
aF153321963977.68396
aF50.71081764412235
aF1.6163601953936238e+16
aF94.97431956003307
asg13
(lp60
F0.03392832032445548
aF0.03659806070899901
aF0.032538045377902024
aF0.0340559632751015
aF0.046668918796298746
aF0.044001329360909856
aF0.06575311065272867
aF0.07428334044163815
aF0.09996755084522797
aF0.17373069854337705
aF0.16052074561947638
aF0.26902991917725944
aF0.6427563647360841
aF4.23555158740011
aF0.4651818652664398
aF0.8228618134238943
aF32.089005864011924
aF1.4831558606099506
aF83.30082926744052
aF441.2625733026479
aF2.702953200984954
aF5625.0287510388425
aF4.975928697318929
aF285710.830580345
aF9.22890879781287
aF66009939.050625235
aF17.16578383665453
aF112510894614.8052
aF32.05564449943918
aF1.1861192414021482e+16
aF60.18741992175879
asg15
(lp61
F0.015903900152088507
aF0.017155340957343283
aF0.015252208770891573
aF0.015963732785203827
aF0.021876055685765037
aF0.020625623137926496
aF0.03082177061846656
aF0.03482031583201788
aF0.04685978945870061
aF0.08211490048339307
aF0.07524409950912955
aF0.12610777461434036
aF0.30631358006954007
aF2.06814042353521
aF0.21805399934364367
aF0.38571647504245044
aF25.6962742270408
aF0.6952293096609143
aF48.80907964889093
aF258.55228904452025
aF1.267009312961697
aF3295.915283811822
aF2.3324665768682484
aF167408.6897931709
aF4.326050998974783
aF38677698.66247572
aF8.04646117343181
aF65924352313.36243
aF15.026083359112118
aF6949917430090712.0
aF28.212853088324433
asg17
(lp62
F0.08344930868635037
aF0.09001574317848923
aF0.08008149881972931
aF0.08381734349886572
aF0.11485990562322193
aF0.10822465183098741
aF0.16033449244708436
aF0.18173864240869547
aF0.243599092266876
aF0.4230570440144778
aF0.38932445321376824
aF0.6494345790697655
aF1.5483024627340258
aF9.398875023975416
aF1.1229426992110514
aF1.986377296575168
aF48.05604094388266
aF3.577777749566272
aF154.7051441576429
aF818.2630706212466
aF6.524892383884266
aF10430.87250852441
aF12.011824610989759
aF529812.9805181535
aF22.157178877424624
aF122406709.1933312
aF41.242320580830956
aF208636586493.9478
aF77.3818886904196
aF2.1995013953819452e+16
aF144.50066710072542
asss.