(dp0
S'csccsc'
p1
(dp2
S'high'
p3
(dp4
S'ctau'
p5
(lp6
sS'limit'
p7
(lp8
sS'16.0'
p9
(lp10
sS'84.0'
p11
(lp12
sS'50.0'
p13
(lp14
sS'2.5'
p15
(lp16
sS'97.5'
p17
(lp18
ssS'comb'
p19
(dp20
g5
(lp21
sg7
(lp22
sg9
(lp23
sg11
(lp24
sg13
(lp25
sg15
(lp26
sg17
(lp27
ssS'low'
p28
(dp29
g5
(lp30
sg7
(lp31
sg9
(lp32
sg11
(lp33
sg13
(lp34
sg15
(lp35
sg17
(lp36
sssS'cscdt'
p37
(dp38
g3
(dp39
g5
(lp40
I1000
aI1172
aI853
aI621
aI1610
aI452
aI2212
aI329
asg7
(lp41
F0.0785495473110794
aF0.09257077899998109
aF0.06806579625109202
aF0.05508724805152662
aF0.13578488542018213
aF0.049926998990150434
aF0.21212865303508993
aF0.05224186636484389
asg9
(lp42
F0.05303819403751708
aF0.062375153112963724
aF0.04577941214879103
aF0.03702312719216374
aF0.09150676925088064
aF0.033488322443157414
aF0.14313089239058802
aF0.035089417753403004
asg11
(lp43
F0.12325171927055593
aF0.14514861126317197
aF0.10665501175330508
aF0.08625498112623138
aF0.21239802970253566
aF0.07821831892639843
aF0.3313780991819606
aF0.08195798475425385
asg13
(lp44
F0.07890472814952146
aF0.09245110445113061
aF0.0681058647639873
aF0.05507917151697182
aF0.1356293565592933
aF0.04982045536263426
aF0.2121455166389899
aF0.052202399025856244
asg15
(lp45
F0.03852769929175852
aF0.045503277972040845
aF0.03325481677929067
aF0.0268941267172714
aF0.06675507393152717
aF0.02432639422003626
aF0.10441537147075283
aF0.02548945264934387
asg17
(lp46
F0.1907108311529782
aF0.224825389426736
aF0.16550949196166037
aF0.13385228416967
aF0.32960372164126084
aF0.12115488739131441
aF0.5102996078331632
aF0.1269473694893748
assg19
(dp47
g5
(lp48
I1000
aI1172
aI853
aI621
aI1610
aI452
aI2212
aI329
asg7
(lp49
F0.013912202783162882
aF0.01497538530584839
aF0.013389022364967761
aF0.0140063464335194
aF0.018996411759796755
aF0.01766664873019793
aF0.026610274150997475
aF0.027165553098335554
asg9
(lp50
F0.009571634340137646
aF0.01034689983515347
aF0.009218761496049596
aF0.009699937155680313
aF0.01313038358026782
aF0.012273726687144527
aF0.018377547199663807
aF0.018807694190915616
asg11
(lp51
F0.02093866455747851
aF0.022508912169482833
aF0.02016672887217768
aF0.021027348618712482
aF0.0286397663269388
aF0.026465940164131733
aF0.04008479019412824
aF0.04052561126686269
asg13
(lp52
F0.01390139677589001
aF0.014943900467132797
aF0.013388900660515608
aF0.01396027497880062
aF0.01896405188461812
aF0.017664506152685867
aF0.026542465913195677
aF0.0271206884020385
asg15
(lp53
F0.0070593030502566455
aF0.0075886994559658735
aF0.006799051116668082
aF0.00714373446180813
aF0.00963018259765764
aF0.009039259007819721
aF0.013478595971544681
aF0.013984104957301102
asg17
(lp54
F0.031105388110045436
aF0.0335276496997197
aF0.029878378784124835
aF0.031153445851304327
aF0.04247301343214859
aF0.03913258009831371
aF0.05944608087658132
aF0.05985937614830316
assg28
(dp55
g5
(lp56
I1000
aI1172
aI853
aI621
aI1610
aI452
aI2212
aI329
asg7
(lp57
F0.014179037652172606
aF0.01521111250965469
aF0.013710750385394828
aF0.014601154438250158
aF0.01921829518909163
aF0.019220845278010056
aF0.02685166130296704
aF0.03304020903467077
asg9
(lp58
F0.00977684257156495
aF0.010451185968402308
aF0.00945851460123819
aF0.010063216284666629
aF0.013214685340018642
aF0.013243563890375046
aF0.018479135622285276
aF0.022720571719789442
asg11
(lp59
F0.021387574261117464
aF0.02298375719388348
aF0.020685201413544754
aF0.022014038406551643
aF0.028984612946070007
aF0.028971286701505585
aF0.04053146664908089
aF0.049834481834553065
asg13
(lp60
F0.014199431672061003
aF0.015178816674612483
aF0.013660816574989996
aF0.014615347540818903
aF0.019192394700014662
aF0.01923433656412594
aF0.02683823757074036
aF0.032998302194577625
asg15
(lp61
F0.007210648895968477
aF0.007707992842576652
aF0.006937133416987107
aF0.007421856173072099
aF0.009746137933601197
aF0.009767436536470206
aF0.013628792516391588
aF0.016756950333183952
asg17
(lp62
F0.0318573834512787
aF0.03411756713243427
aF0.030868474954263765
aF0.03287813458719544
aF0.04309917799806195
aF0.04338413772651556
aF0.060108511025644226
aF0.07449685058356842
asss.