(dp0
S'csccsc'
p1
(dp2
S'high'
p3
(dp4
S'ctau'
p5
(lp6
sS'limit'
p7
(lp8
sS'16.0'
p9
(lp10
sS'84.0'
p11
(lp12
sS'50.0'
p13
(lp14
sS'2.5'
p15
(lp16
sS'97.5'
p17
(lp18
ssS'comb'
p19
(dp20
g5
(lp21
sg7
(lp22
sg9
(lp23
sg11
(lp24
sg13
(lp25
sg15
(lp26
sg17
(lp27
ssS'low'
p28
(dp29
g5
(lp30
sg7
(lp31
sg9
(lp32
sg11
(lp33
sg13
(lp34
sg15
(lp35
sg17
(lp36
sssS'cscdt'
p37
(dp38
g3
(dp39
g5
(lp40
I1000
aI1172
aI853
aI621
aI1610
aI452
aI2212
aI329
aI3039
aI240
aI4175
aI5736
aI174
aI127
aI7880
aI10826
aI92
aI14874
aI67
aI49
aI20434
aI36
aI28072
aI26
aI38566
aI19
aI52983
aI14
aI72790
aI10
aI100000
asg7
(lp41
F0.1748568233078508
aF0.2070431319542015
aF0.15103291886633324
aF0.11957775556965113
aF0.3034334063381822
aF0.1042334556832549
aF0.4701439738704359
aF0.10254456002225962
aF0.7635245722611816
aF0.11822910961008223
aF1.2852441330821345
aF2.2262464880100277
aF0.1690009235946858
aF0.31257487545863766
aF3.932880035769545
aF7.04242374360136
aF0.830639494884935
aF12.951149604430057
aF3.545867755513934
aF27.915525641858036
aF23.827378278720268
aF471.24806800880367
aF44.132547858105625
aF29475.55633111902
aF81.99568701423942
aF7536054.005012221
aF153.46405860136807
aF13026060519.880926
aF287.82141737480094
aF1299818262577952.8
aF540.2334543467324
asg9
(lp42
F0.1277505089346497
aF0.1514778542803773
aF0.11019215997317829
aF0.08675704100755795
aF0.22277518477425387
aF0.07521664871780791
aF0.34476671688730887
aF0.07335883827382246
aF0.5617810642367438
aF0.08329730031794808
aF0.9430780553515622
aF1.6413651325362804
aF0.11572029579206242
aF0.20410366260175644
aF2.8991866663696757
aF5.2279595394661635
aF0.5380075310037274
aF9.524752814263717
aF2.310158439644923
aF18.287723663295434
aF17.515275434847243
aF308.25807103853117
aF32.516639397593124
aF19222.71713808484
aF60.52449075952497
aF4925867.220558473
aF113.08061622151257
aF8508839860.491631
aF211.85759661981797
aF849077950715804.8
aF397.7016388819173
asg11
(lp43
F0.25767518537672374
aF0.30417118358060224
aF0.2226292038542673
aF0.17636019190983768
aF0.4446057886113688
aF0.15418007932540248
aF0.6887294848669334
aF0.1527470386095971
aF1.117374401073483
aF0.17806767653213165
aF1.878835945001358
aF3.2557771333271477
aF0.25745826639001773
aF0.4869990750425483
aF5.771696493596956
aF10.37952260309574
aF1.3514747590980367
aF18.91031986346341
aF5.808553196605272
aF45.468249027881704
aF34.86938438751164
aF766.4132999007804
aF64.38214262080916
aF47944.67813839351
aF119.83699632933211
aF12294551.236218553
aF223.89682624340634
aF21155288124.13488
aF420.6193215895453
aF2111038517794480.5
aF789.5916701148599
asg13
(lp44
F0.1752471501976222
aF0.20686948108107875
aF0.15100270567083918
aF0.1192973025487058
aF0.3032022451687469
aF0.10401329950983834
aF0.46968427135755775
aF0.10249530604002108
aF0.762001900526104
aF0.11822097785943012
aF1.28477868530994
aF2.2263536991037682
aF0.16913879533049206
aF0.312570398473354
aF3.9360519010441473
aF7.097687197100897
aF0.8292300459045222
aF12.931185789600326
aF3.5466300482704667
aF27.89814380814082
aF23.77943923802927
aF470.2514186122249
aF44.145891605085
aF29417.61606485915
aF82.17047204209953
aF7543619.062637755
aF153.5227723047118
aF12980338200.586115
aF287.62635590148307
aF1295278691296810.5
aF539.935668830074
asg15
(lp45
F0.1019993178884598
aF0.1204045026604716
aF0.0872984392159539
aF0.06850274794788966
aF0.17765756552856266
aF0.05850748097428407
aF0.2770403319335595
aF0.05645249277985536
aF0.4494620585134441
aF0.06234309379305885
aF0.757818677663285
aF1.3132008147057384
aF0.08258730240746683
aF0.14529639616534815
aF2.3370308162449622
aF4.214251773278658
aF0.38546240415093025
aF7.677891562575194
aF1.6624828351267813
aF13.077254910066008
aF14.11904204757988
aF220.4303524744804
aF26.211623140519215
aF13789.507530402727
aF48.7887177749966
aF3506604.1736480184
aF91.15414605592262
aF6084533531.524741
aF170.7781488165056
aF607161886545379.9
aF320.5868033678564
asg17
(lp46
F0.38561219207272773
aF0.4539245583952032
aF0.3325870412100856
aF0.26446589694835193
aF0.6627869808895744
aF0.23143522476259315
aF1.0267094716287126
aF0.23034772351713967
aF1.6657032151888993
aF0.26878019628874394
aF2.7977682181902046
aF4.834439310189911
aF0.39191266040888284
aF0.7513285350032962
aF8.555622730880081
aF15.412347773973279
aF2.1284895034203304
aF28.079559860088935
aF9.424096002348103
aF73.45496813689668
aF51.68832321713421
aF1238.1576963445234
aF95.76414303838779
aF77455.68680867607
aF178.24953924512118
aF19862119.15443414
aF333.03159574071884
aF34176837213.512543
aF624.5693215567311
aF3410429550794274.0
aF1172.4490730640316
assg19
(dp47
g5
(lp48
I1000
aI1172
aI853
aI621
aI1610
aI452
aI2212
aI329
aI3039
aI240
aI4175
aI5736
aI174
aI127
aI7880
aI10826
aI92
aI14874
aI67
aI49
aI20434
aI36
aI28072
aI26
aI38566
aI19
aI52983
aI14
aI72790
aI10
aI100000
asg7
(lp49
F0.013480844821743386
aF0.014438610332463828
aF0.01313180980089771
aF0.014155090429966186
aF0.01813353807032791
aF0.018798765795483775
aF0.025196663235519813
aF0.031976523970055
aF0.03791460113341986
aF0.06748715689960873
aF0.06054321623622365
aF0.10104715972264655
aF0.15289584052005334
aF0.3114119147194222
aF0.17451890770207773
aF0.30832902540679463
aF0.8160662342514899
aF0.5545548489468911
aF3.4418639133573303
aF26.41310199755543
aF1.0106036535674674
aF427.9925048353078
aF1.8580649605874648
aF25523.921359367512
aF3.4410596588234714
aF6341399.095076039
aF6.406541803358502
aF10914129810.461699
aF11.972115153267266
aF1107357158574883.1
aF22.39566459510018
asg9
(lp50
F0.009864383106166429
aF0.010554313808072834
aF0.009587498578780567
aF0.010365654478440537
aF0.013286384629002364
aF0.01386579016859381
aF0.01845450877272601
aF0.023743287857977698
aF0.027819871542426867
aF0.05012271436195668
aF0.044394463549509676
aF0.0743907854128108
aF0.11021078406801615
aF0.20339323205985327
aF0.12820670086876454
aF0.22638839739554714
aF0.531899671106906
aF0.40699156999471436
aF2.264356003665856
aF17.57062339562832
aF0.7412303897432307
aF286.5621228889234
aF1.3652978315300872
aF17275.28139726398
aF2.521668352568627
aF4309490.807270437
aF4.693949551941445
aF7428696829.281418
aF8.770539411894823
aF751513106519167.0
aF16.431994627752896
asg11
(lp51
F0.019432031563778197
aF0.02079113924981471
aF0.018886590911007126
aF0.020228295597929918
aF0.026100769899901496
aF0.0267124139925101
aF0.03639027815761344
aF0.04500697680055211
aF0.05476715739014015
aF0.09409096499827822
aF0.08754103927232577
aF0.14604467583673983
aF0.2156866223910869
aF0.48406236769626554
aF0.25169657726522876
aF0.4444477891631184
aF1.3136684421291132
aF0.7990096028469664
aF5.553270105633356
aF41.9245351597508
aF1.45519033559966
aF670.1155404239252
aF2.675808548230137
aF39644.73693233371
aF4.955296395839292
aF9802816.03612357
aF9.224016819378267
aF16898086269.52313
aF17.23486845249056
aF1715787006295694.2
aF32.29029054213763
asg13
(lp52
F0.013471538952357321
aF0.014413759892595258
aF0.013093404744081088
aF0.014140789589905892
aF0.018144880033472928
aF0.018830993544615468
aF0.02522809109155969
aF0.03199753471232627
aF0.03786349687249724
aF0.06746718305178263
aF0.060689102277444014
aF0.10124760161185348
aF0.15290824677537274
aF0.31148242408455723
aF0.1744923232292605
aF0.3081199121887892
aF0.8139962835247102
aF0.553925060873351
aF3.4410062388407345
aF26.43499483140261
aF1.0088319243689228
aF427.9104831764602
aF1.8550433032125841
aF25510.42905928554
aF3.435331500310513
aF6340400.268167998
aF6.3946841939889945
aF10929576944.230131
aF11.948323928365259
aF1109760318811179.1
aF22.38571487806955
asg15
(lp53
F0.007840856655864223
aF0.008389258687487083
aF0.0076207707299534464
aF0.008175143981664343
aF0.01056088720698229
aF0.010886668142980817
aF0.014782084623960757
aF0.018623565125533648
aF0.02218564269872885
aF0.03900446520181183
aF0.03556002086568985
aF0.059324766569445395
aF0.08003791042148417
aF0.1447906580705559
aF0.10224159564214483
aF0.18053901104811867
aF0.3815607579022079
aF0.32456546535547914
aF1.626413105077066
aF12.597927224340307
aF0.5911124556849157
aF207.2691402885979
aF1.0905625669277106
aF12655.564416129935
aF2.026308814636279
aF3170200.134083999
aF3.771864505048196
aF5464788472.115066
aF7.0476441921216955
aF550545158160233.4
aF13.204074010111336
asg17
(lp54
F0.028095681102677676
aF0.030060737186630878
aF0.027225304839025313
aF0.029212473377180793
aF0.03779897979360046
aF0.03828795829055721
aF0.05261465334075012
aF0.0640039890755423
aF0.07905673499636252
aF0.13183634666999797
aF0.12657065753807034
aF0.2111577701640803
aF0.30722096602230636
aF0.7264715905937169
aF0.363913903117355
aF0.6426020228149275
aF2.048727889744062
aF1.155242976919323
aF8.814034448807522
aF65.66182643309402
aF2.103977736052766
aF1039.89936358024
aF3.8688008528423303
aF60979.66182503657
aF7.164583929216426
aF15059820.169950781
aF13.336486334587125
aF25960104878.990368
aF24.918925463379633
aF2635920364839033.0
aF46.68671219791782
assg28
(dp55
g5
(lp56
I1000
aI1172
aI853
aI621
aI1610
aI452
aI2212
aI329
aI3039
aI240
aI4175
aI5736
aI174
aI127
aI7880
aI10826
aI92
aI14874
aI67
aI49
aI20434
aI36
aI28072
aI26
aI38566
aI19
aI52983
aI14
aI72790
aI10
aI100000
asg7
(lp57
F0.01252627939007197
aF0.014449722168489684
aF0.013147612199190133
aF0.014199395462621294
aF0.01810945975077584
aF0.018964014842734876
aF0.02524239667443672
aF0.03307201879382156
aF0.03792440365730433
aF0.07797729443911634
aF0.060522371762444384
aF0.10125361344962519
aF0.25910083276612195
aF1.0621457563030796
aF0.174277602900526
aF0.3078009217034132
aF4.113005171513544
aF0.5545341377880781
aF14.523737598242922
aF86.86512273194946
aF1.010248402128865
aF1117.153812603626
aF1.85434729317522
aF56722.736661447285
aF3.4406075964270406
aF13104950.56894718
aF6.395109596362519
aF22336782088.142654
aF11.97381786385604
aF2354801611887513.5
aF22.3887882434745
asg9
(lp58
F0.009879142781637004
aF0.010559945282221175
aF0.009627279919051442
aF0.010368209118161125
aF0.01330159662395323
aF0.01393941323562306
aF0.018487485639954657
aF0.02469359831678134
aF0.02788792240264533
aF0.0589493595045426
aF0.044427406250671625
aF0.0743519901279154
aF0.1989547237696809
aF0.816310312605168
aF0.12802690850725076
aF0.22571437390713311
aF2.8504370930238823
aF0.4075925449236547
aF10.014540777157748
aF60.00449843960565
aF0.7420893401275755
aF770.8513465885547
aF1.3642446846426735
aF39157.934342877634
aF2.526011378114003
aF9047005.884981364
aF4.709479717212332
aF15420206055.55961
aF8.775447496839478
aF1625638405287540.5
aF16.4401599168945
asg11
(lp59
F0.019461107201280574
aF0.020802232715874367
aF0.018860142301888858
aF0.02031164577053013
aF0.026113818188614323
aF0.02697499129870891
aF0.036395099296564204
aF0.04671819497753847
aF0.05474982755714746
aF0.10938780681909141
aF0.08736391372535775
aF0.14596851290184962
aF0.36265964647550875
aF1.4879114318408195
aF0.2513436078048999
aF0.4435482663177175
aF6.120483267632448
aF0.8001894291402148
aF22.391623930966052
aF133.81794002742134
aF1.4568766108294475
aF1723.5551006325172
aF2.6782976995231076
aF87553.66098221723
aF4.9590887464179065
aF20228301.09530167
aF9.229975750114262
aF34478210250.89301
aF17.24451297879477
aF3634782993656708.0
aF32.30633550738623
asg13
(lp60
F0.013491695868495511
aF0.014421450654656309
aF0.01314773311609059
aF0.014159601416350075
aF0.01810378460598519
aF0.019016098788713423
aF0.025161901040456642
aF0.03302693182221596
aF0.03795611568740165
aF0.07798985030058349
aF0.06073413633800616
aF0.10119480032029954
aF0.2593011052615108
aF1.060831105431138
aF0.1742476216134571
aF0.30749630416949814
aF4.1179403343711565
aF0.5547430018299683
aF14.520197884332083
aF87.00121260482291
aF1.0100009759636317
aF1117.666235620078
aF1.8567689743466989
aF56775.53949324841
aF3.437960659496579
aF13117357.913233155
aF6.398815415417079
aF22357934160.55652
aF11.955010334529414
aF2357031825861156.0
aF22.396838654504595
asg15
(lp61
F0.007852588610960278
aF0.00839373495134293
aF0.007652391540224602
aF0.008241330511860006
aF0.010607686292569448
aF0.01099368211222495
aF0.014743301390892563
aF0.019351717864579662
aF0.022239911535586906
aF0.04752506502691807
aF0.035586408010550484
aF0.05929382831267551
aF0.16510187561572756
aF0.6837387984224131
aF0.10209821578913503
aF0.1813747731624774
aF2.139398689341265
aF0.32504472763474707
aF7.4869770341087305
aF44.86000024936182
aF0.5917974468536904
aF576.2966527416028
aF1.087950570906269
aF29274.887551206215
aF2.014430073923777
aF6763637.674010846
aF3.7618035938291814
aF11528309801.536955
aF7.051588127007584
aF1215344535209658.5
aF13.210635300117945
asg17
(lp62
F0.028137719664449713
aF0.030076777569746995
aF0.027275220046287643
aF0.029285508099252143
aF0.037756500077821255
aF0.038905336478127515
aF0.052536551595981903
aF0.06706996012989726
aF0.07915968869538285
aF0.155803504748604
aF0.1265198928154448
aF0.211047651858792
aF0.5173582961650867
aF2.1328430586076426
aF0.3634035668542398
aF0.6413014576324167
aF9.096213877136648
aF1.1569488790918847
aF34.46283023348679
aF206.3378068564154
aF2.106415931644309
aF2652.7147214836446
aF3.872399969925952
aF134753.38579084704
aF7.170067433470216
aF31133273.36411707
aF13.345102683515696
aF53065234682.30724
aF24.93287118618773
aF5594275664951509.0
aF46.70991304271208
asss.