(dp0
S'high'
p1
(dp2
S'ctau'
p3
(lp4
I1000
aI1172
aI853
aI621
aI1610
aI452
aI2212
aI329
aI3039
aI240
aI4175
aI5736
aI174
aI127
aI7880
aI10826
aI92
aI14874
aI67
aI49
aI20434
aI36
aI28072
aI26
aI38566
aI19
aI52983
aI14
aI72790
aI10
aI100000
asS'limit'
p5
(lp6
F0.2125528008163069
aF0.25165312807286006
aF0.18335830445647472
aF0.14624159649090254
aF0.3708250557967206
aF0.13000152255977185
aF0.581891180061693
aF0.13319344183991383
aF0.954722477207311
aF0.16179207007054355
aF1.6188992176584012
aF2.834476412485767
aF0.25033088160457445
aF0.5073990765050326
aF5.0416472214209005
aF8.97057695938463
aF1.4608989148442701
aF16.5238403548038
aF6.300662071281545
aF46.91055636757409
aF30.82716506349175
aF704.5330387474348
aF57.31843902202919
aF35181.80399216695
aF106.88915717070174
aF7946643.28993358
aF199.60328458269436
aF13172822019.09267
aF374.97909690884995
aF1301343077729114.0
aF704.4416333705266
asS'16.0'
p7
(lp8
F0.1577527528237695
aF0.18698857145565562
aF0.1362000111095384
aF0.1084318780372077
aF0.27619424185744657
aF0.09632604685267954
aF0.43281313065197075
aF0.09834058002004376
aF0.708694522309707
aF0.11897761735809174
aF1.208725543144338
aF2.108504009845948
aF0.18357682414465032
aF0.3761917322382029
aF3.7597751757776043
aF6.789130393558991
aF1.0850050157309352
aF12.427432047581894
aF4.705503422450447
aF34.63208216152901
aF22.936630326658406
aF489.41337397347854
aF42.65792598865972
aF22898.048078003303
aF79.37880222990353
aF5178890.161405754
aF148.97598131323346
aF8578955863.623194
aF279.0658341574025
aF847817954084109.8
aF523.8078765472033
asS'84.0'
p9
(lp10
F0.30851728329810635
aF0.3654506540939679
aF0.26691898209348286
aF0.21322595021926738
aF0.5397943495287127
aF0.19006957031570007
aF0.8435721711045033
aF0.19404463354873352
aF1.3870222755479222
aF0.23703173400841596
aF2.3590379770191725
aF4.109568677828422
aF0.36363003221989926
aF0.7280504978960008
aF7.327970144932966
aF13.268684172827419
aF2.098619673777718
aF24.255517799153502
aF9.140126437646128
aF68.7660045902632
aF44.7045177428079
aF1068.1049157024468
aF83.1422090004649
aF58082.60410129143
aF154.71284203924247
aF12958172.119387476
aF289.56287906908904
aF21465523227.90102
aF543.911789473763
aF2121336985230938.5
aF1020.9249739706406
asS'50.0'
p11
(lp12
F0.212708509774063
aF0.2512709251367202
aF0.18302243034805635
aF0.14620589990631314
aF0.37114344544534794
aF0.13032792036288052
aF0.581604292196177
aF0.13305355820210552
aF0.956288177690845
aF0.16208616661497321
aF1.6175577308565574
aF2.833359007366497
aF0.2507062337906102
aF0.5075366716889589
aF5.052299075656368
aF9.12307667566705
aF1.4629842957563692
aF16.769152253959952
aF6.301697570167413
aF46.895494370386494
aF30.821714272870313
aF705.3924538536593
aF57.322736058905136
aF35292.72057478891
aF106.66740174162307
aF7950799.887975251
aF200.19048413664277
aF13170690861.094677
aF375.00222487880933
aF1301597578683850.8
aF703.8809308467811
asS'2.5'
p13
(lp14
F0.12795746291095977
aF0.15213669295387358
aF0.11081436212479974
aF0.0879519866623915
aF0.224715757984488
aF0.0778912961543778
aF0.35214322379065405
aF0.07952029064422712
aF0.5790026075862538
aF0.0956055123393006
aF0.9793806573545563
aF1.7155103364914337
aF0.1459188626359411
aF0.29738476856774937
aF3.0590092059638168
aF5.523737830970284
aF0.8800764904159408
aF10.153197653764815
aF3.840096956820767
aF27.75260701997482
aF18.66158481365195
aF355.4516661996955
aF34.70712534816522
aF16405.600579687034
aF64.58377839824834
aF3726937.447488399
aF121.20908219210791
aF6173761341.13813
aF227.05212834459158
aF610123865008055.0
aF426.177907348637
asS'97.5'
p15
(lp16
F0.45784423106413297
aF0.5414073516072069
aF0.3958928237932319
aF0.3162556099685153
aF0.7996937763692022
aF0.2827158174616686
aF1.251873629398412
aF0.2886284601303001
aF2.0524205328163485
aF0.35196372655110686
aF3.478914985849688
aF6.0634558041718885
aF0.533402221004792
aF1.0624485956655638
aF10.780652439718718
aF19.48766223791873
aF3.062528602902098
aF35.6396412653989
aF13.524933342357528
aF102.51151811525962
aF65.57623682693198
aF1619.1699111244843
aF121.60364804916178
aF92317.98280103928
aF226.94541467164981
aF20934215.4248858
aF422.9731225405635
aF34678031057.214294
aF793.1947084457481
aF3427066767857422.5
aF1488.8301793515136
assS'comb'
p17
(dp18
g3
(lp19
I1000
aI1172
aI853
aI621
aI1610
aI452
aI2212
aI329
aI3039
aI240
aI4175
aI5736
aI174
aI127
aI7880
aI10826
aI92
aI14874
aI67
aI49
aI20434
aI36
aI28072
aI26
aI38566
aI19
aI52983
aI14
aI72790
aI10
aI100000
asg5
(lp20
F0.011882365262065155
aF0.012701861403347475
aF0.011539820000046195
aF0.012398386131335893
aF0.015915011207931082
aF0.01656151584270602
aF0.02211174938216769
aF0.028951236632217638
aF0.03320748972417115
aF0.06805379682962301
aF0.05289263147993773
aF0.08809060405455807
aF0.1849692445877387
aF0.47525800832603116
aF0.15162612611024384
aF0.26749318116827486
aF1.4557492279874813
aF0.4805573784577348
aF6.311586696978774
aF46.96147819362141
aF0.8747686858888062
aF703.754804359843
aF1.607929724340457
aF35244.49075893174
aF2.97692127486539
aF7920233.817170777
aF5.540273026352944
aF13142123127.635012
aF10.35036897527684
aF1300703553846050.8
aF19.389813881032353
asg7
(lp21
F0.008098261316109816
aF0.00862384213583886
aF0.00781823895379325
aF0.008391726123821877
aF0.010892816802239464
aF0.01117667601600069
aF0.015081781764438074
aF0.01950919265829282
aF0.022683706741487262
aF0.04630493982864327
aF0.03617646987577373
aF0.06032808085794858
aF0.13351265207999347
aF0.34769519766997675
aF0.10402777363439132
aF0.18320166612006766
aF1.0801326154714135
aF0.3299463833902733
aF4.699577136500881
aF34.621248699409925
aF0.6000498653128185
aF490.98719495704154
aF1.1021867819171902
aF22910.000277368625
aF2.0465997069634776
aF5164005.049208784
aF3.8073825015873144
aF8570792741.93206
aF7.110912411820267
aF847655298938790.1
aF13.318354420983278
asg9
(lp22
F0.0186374830553121
aF0.01993669520849144
aF0.018141785665243215
aF0.019545517938776145
aF0.02497729980800719
aF0.026140481302536003
aF0.034689640503423096
aF0.04557963646824096
aF0.05211376684036746
aF0.1030835306419663
aF0.08290116136622562
aF0.13789454600673937
aF0.269806915255051
aF0.6847885285381068
aF0.23750731014089385
aF0.41875211005027674
aF2.0891955267401063
aF0.7533053828273787
aF9.140885666466168
aF68.74449688591673
aF1.3699825676534907
aF1065.5871867103538
aF2.5164186592017117
aF57884.21753302111
aF4.660728056639228
aF12920928.281390594
aF8.67056434491218
aF21445097172.649456
aF16.193703572472106
aF2120930009976775.5
aF30.329931108140034
asg11
(lp23
F0.011870977310829672
aF0.012666340614395689
aF0.011525984345071183
aF0.01241781437975954
aF0.015909066722044157
aF0.01656582774074139
aF0.0221514937183822
aF0.028958018890511826
aF0.033193395369314274
aF0.06807790148532765
aF0.052937550345614856
aF0.08827895117015402
aF0.18500264645455117
aF0.4747396240364098
aF0.15166320014467588
aF0.2680816413800017
aF1.4564145150097636
aF0.4810323496588573
aF6.3195889530885125
aF46.880824719296854
aF0.8748190953270348
aF703.7297001291373
aF1.6068898589545508
aF35172.17433886877
aF2.983759530066704
aF7927947.781693844
aF5.550823536750895
aF13158158572.321484
aF10.367075009366724
aF1301347865237363.0
aF19.416970887470193
asg13
(lp24
F0.0059818596605352645
aF0.00643212609324781
aF0.005808015548883525
aF0.00620890718987977
aF0.00807882294478805
aF0.008153493341146152
aF0.011248805403865959
aF0.014026540400091667
aF0.01698568278664129
aF0.03324116283463264
aF0.0270891370909201
aF0.04517399454410225
aF0.0982826559289803
aF0.26889549017687275
aF0.07820133757459849
aF0.13718240242492274
aF0.876124356685561
aF0.24803230529284828
aF3.8509995182883126
aF27.74392556630263
aF0.4510785960280023
aF354.61379420569807
aF0.8285525835234403
aF16486.956721344737
aF1.5385010076906442
aF3716225.5226689894
aF2.86214338613718
aF6167886830.775696
aF5.345523051704717
aF610006811830013.9
aF10.011875613851817
asg15
(lp25
F0.029413838297757042
aF0.03140391264185309
aF0.028576606022201773
aF0.030787738487722188
aF0.039419393289371434
aF0.04109726936820467
aF0.05434257767989508
aF0.07113248639873476
aF0.08148355450808084
aF0.1542372800235143
aF0.12986766589637752
aF0.2164278395074062
aF0.39217106617826886
aF0.9989895983016651
aF0.3720638058591837
aF0.6572385794409945
aF3.048775809070949
aF1.1800801542071775
aF13.509803416302368
aF102.47945371685167
aF2.146127289877794
aF1615.3532912343494
aF3.9420609318559174
aF92002.6664976805
aF7.315091636472325
aF20874045.54776956
aF13.608597616548694
aF34645032591.0109
aF25.416292074316193
aF3426409453468742.0
aF47.60334065573457
assS'low'
p26
(dp27
g3
(lp28
I1000
aI1172
aI853
aI621
aI1610
aI452
aI2212
aI329
aI3039
aI240
aI4175
aI5736
aI174
aI127
aI7880
aI10826
aI92
aI14874
aI67
aI49
aI20434
aI36
aI28072
aI26
aI38566
aI19
aI52983
aI14
aI72790
aI10
aI100000
asg5
(lp29
F0.011887988802862525
aF0.012702347139690822
aF0.011545894505160624
aF0.0123981902720975
aF0.01591489735830719
aF0.016557219071877786
aF0.022103690187227822
aF0.02908735846623788
aF0.033194035136357436
aF0.07177706000110765
aF0.05288257497252758
aF0.08824110718285803
aF0.27772892143192535
aF1.7739490504028543
aF0.15188263603367336
aF0.26794064434433656
aF14.34308674802497
aF0.480626891954644
aF66.81134952174236
aF398.4141805881985
aF0.8759720033983731
aF4960.974649795913
aF1.610138608419607
aF251502.08295543358
aF2.980981406323938
aF58105177.9294746
aF5.547825554012555
aF99037562737.06288
aF10.367043532230111
aF1.0440796545899076e+16
aF19.421086189885067
asg7
(lp30
F0.008065915306263959
aF0.008640470926016627
aF0.007853762570732054
aF0.008427479479200084
aF0.010842404464997757
aF0.011187175601097998
aF0.015110686734869143
aF0.019531300562041453
aF0.022681810557707384
aF0.04767187624543104
aF0.036331825908498
aF0.06053862741822769
aF0.18389731251240587
aF1.1581516795038291
aF0.10373396899768858
aF0.18329394305009555
aF11.737259617000124
aF0.33000821703844463
aF56.640753118856196
aF335.16997361461375
aF0.60002607069247
aF4114.521988666316
aF1.1019626794902473
aF208769.8688712078
aF2.0460931262243722
aF48234261.31819814
aF3.8061138248920696
aF82213082744.96858
aF7.108101023492258
aF8667117944969163.0
aF13.31248799020845
asg9
(lp31
F0.018669106274094103
aF0.019924551894103727
aF0.01816656881851653
aF0.01956540621303105
aF0.02500211549643389
aF0.026165039680809393
aF0.03471543795136844
aF0.046138282549166826
aF0.05210941148224123
aF0.11403377147420808
aF0.08300574321333917
aF0.1379588147590333
aF0.4443218844900475
aF2.844110139744119
aF0.2377143699778853
aF0.41896303128690154
aF18.26532764655299
aF0.7515287504406902
aF83.5072213024076
aF502.9623568044699
aF1.3699282126796408
aF6311.2717441931
aF2.515906954195427
aF318692.37408912886
aF4.659574418702279
aF73630794.2091733
aF8.667675183417524
aF125500306451.51907
aF16.187301188843364
aF1.3230570145621486e+16
aF30.316571466578694
asg11
(lp32
F0.01189111948331567
aF0.012690764289722673
aF0.011512574569103871
aF0.012399050268248401
aF0.01592487268081786
aF0.016581389998949665
aF0.0221116859254317
aF0.029165223150609473
aF0.03319062065622987
aF0.0717223159233372
aF0.052869760696760915
aF0.08809529013413647
aF0.2780650240601041
aF1.771061892569604
aF0.15179541357193138
aF0.26821667154313983
aF14.325332357339843
aF0.481122497593689
aF66.7459344121509
aF398.20346236190363
aF0.8747844048963721
aF4949.873578258971
aF1.6065631376373206
aF251520.1746479516
aF2.98302098060688
aF58111306.46564909
aF5.548973919472474
aF99048052490.36014
aF10.36297625635319
aF1.044190443285604e+16
aF19.408418155505895
asg13
(lp33
F0.005992009427139538
aF0.006444528740874795
aF0.005801258278962497
aF0.0061995251341242005
aF0.00808684940822782
aF0.008161152890108039
aF0.011314964282154503
aF0.014126904963576464
aF0.01698426291393013
aF0.03418016618221539
aF0.027054447856545625
aF0.045080011748327646
aF0.129256788527939
aF0.8025124200706018
aF0.07767655928876177
aF0.1372514998912161
aF9.84866599567114
aF0.2480787878217459
aF50.9719928811543
aF294.76389108429976
aF0.45106070877469184
aF3596.392521703784
aF0.8283841178442435
aF182253.87655154304
aF1.5381201931254225
aF42107997.45850745
aF2.8611896772279946
aF71771147410.00705
aF5.343409632182114
aF7566301844901545.0
aF10.007465611432727
asg15
(lp34
F0.02946374856304916
aF0.03144510393911629
aF0.028560926175899462
aF0.030760135486061914
aF0.039275565519984
aF0.04132538179087181
aF0.054534123664523086
aF0.07306376098263206
aF0.08147673952891715
aF0.18069932973411215
aF0.12978533615131763
aF0.21611748886169635
aF0.7044965533761647
aF4.13468027827627
aF0.3723881462221462
aF0.6575696019091379
aF23.699997589960223
aF1.1795371532724699
aF107.30537935085974
aF649.523106729041
aF2.146042137485235
aF8189.128937895699
aF3.941259321270829
aF416286.3240231755
aF7.313281372259263
aF96178933.50554839
aF13.60406375424637
aF163932574118.87042
aF25.406244779858802
aF1.7282200198211192e+16
aF47.5823750099146
ass.