(dp0
S'csccsc'
p1
(dp2
S'high'
p3
(dp4
S'ctau'
p5
(lp6
sS'limit'
p7
(lp8
sS'16.0'
p9
(lp10
sS'84.0'
p11
(lp12
sS'50.0'
p13
(lp14
sS'2.5'
p15
(lp16
sS'97.5'
p17
(lp18
ssS'comb'
p19
(dp20
g5
(lp21
sg7
(lp22
sg9
(lp23
sg11
(lp24
sg13
(lp25
sg15
(lp26
sg17
(lp27
ssS'low'
p28
(dp29
g5
(lp30
sg7
(lp31
sg9
(lp32
sg11
(lp33
sg13
(lp34
sg15
(lp35
sg17
(lp36
sssS'cscdt'
p37
(dp38
g3
(dp39
g5
(lp40
I1000
aI1172
aI853
aI621
aI1610
aI452
aI2212
aI329
aI3039
aI240
aI4175
aI5736
aI174
aI127
aI7880
aI10826
aI92
aI14874
aI67
aI49
aI20434
aI36
aI28072
aI26
aI38566
aI19
aI52983
aI14
aI72790
aI10
aI100000
asg7
(lp41
F0.2095559671077718
aF0.24891874901642366
aF0.1794205928864308
aF0.1420824132343378
aF0.36999861361142916
aF0.12494664730250604
aF0.5825980262298944
aF0.12642565634982775
aF0.9579071083070889
aF0.1527814688253221
aF1.6325471448666193
aF2.8584341395082973
aF0.23654064348502823
aF0.49513272837328554
aF5.114976021132249
aF9.266975121871
aF1.6302296604408402
aF16.947142854559978
aF9.12727335729287
aF83.60054267976301
aF31.353071835253953
aF1449.0501203329948
aF58.26440926085498
aF81086.40979421529
aF108.61508885155693
aF16336027.976452444
aF203.28717320433833
aF26268957902.478947
aF381.62304871183915
aF2583238228060965.5
aF716.5511293572815
asg9
(lp42
F0.15840967729853558
aF0.1881684789402522
aF0.13603943345264738
aF0.10744579768731392
aF0.27905393226889175
aF0.09441814308195827
aF0.440070474445655
aF0.0954106173420064
aF0.7254348094107412
aF0.11523199892448066
aF1.236677611123737
aF2.163874921846255
aF0.17770401528341054
aF0.37195908908618164
aF3.866356444064046
aF7.003212760561046
aF1.2094560614075966
aF12.848846015917536
aF6.677612154191109
aF66.30984847481993
aF23.710634949537916
aF1162.496329160108
aF44.05921578242023
aF61433.06125821565
aF82.00913888622655
aF11866436.71118469
aF153.7554470343309
aF19046073981.57165
aF288.06281391808835
aF1864209124091775.5
aF541.7255473849665
asg11
(lp43
F0.2994095058152683
aF0.3556565136508587
aF0.25641112085125295
aF0.20308287044080162
aF0.5289084274389634
aF0.1790586327431691
aF0.8322430431526119
aF0.18114084603020217
aF1.3711414514622944
aF0.21913984639202583
aF2.33483330758165
aF4.089931377469026
aF0.33908323609353636
aF0.7136323399825807
aF7.307784846836592
aF13.2367446589799
aF2.356894765273129
aF24.217882364750565
aF12.777002032289579
aF112.70803615509823
aF44.81537658045576
aF1928.0185772240202
aF83.0441006827643
aF112473.69149739853
aF155.43706804842543
aF23884045.11154001
aF290.61256251314614
aF38439272456.072395
aF544.4663856285445
aF3769901859066299.0
aF1022.7717105887293
asg13
(lp44
F0.20930517361767798
aF0.24862519023847518
aF0.17974758691033668
aF0.14196709268620575
aF0.36871126018496153
aF0.1251727035040502
aF0.5834134120902708
aF0.12627643472192845
aF0.9585099933375472
aF0.15276619900300936
aF1.6367490745118893
aF2.8591069935104065
aF0.23638082214852627
aF0.4961069452611527
aF5.10857935318914
aF9.253277247502595
aF1.6294489030591286
aF16.977055897160717
aF9.109575148565122
aF83.68668598147048
aF31.328632501066874
aF1448.7213704236106
aF58.21501543380428
aF81112.03768672778
aF108.35788157354322
aF16332299.989587529
aF203.1555842105224
aF26213951286.464207
aF380.61460832531935
aF2577920517312597.0
aF716.9765024824032
asg15
(lp45
F0.13081573351104872
aF0.155390743899047
aF0.11234224181896042
aF0.0887294329288786
aF0.23044453761560094
aF0.07774398381696868
aF0.3623544239154416
aF0.07867613803963902
aF0.599068745835967
aF0.09488213141202535
aF1.0197713960337749
aF1.7869418709440041
aF0.14589128866979356
aF0.3023151697685149
aF3.1928620957432123
aF5.783298279689122
aF0.9738503209689323
aF10.61065993572545
aF5.266473132764212
aF56.22699214380048
aF19.580395313166797
aF1007.3140778726668
aF36.38438464612768
aF47526.584582067066
aF67.72367598346452
aF9186918.744142985
aF126.97224013157648
aF14745347598.636116
aF237.8841302033246
aF1450080290988336.0
aF446.7099693200911
asg17
(lp46
F0.4376554965476239
aF0.5198733911038622
aF0.3754282167170789
aF0.29685210227753833
aF0.774152946043757
aF0.2617351709631104
aF1.2185413137800702
aF0.26592468953520954
aF2.0042370550498916
aF0.32170932234842425
aF3.4185816271125367
aF5.9783711097898244
aF0.4977927770267224
aF1.0521098799260318
aF10.68200029791407
aF19.34853257265999
aF3.463083597615978
aF35.45897925618288
aF17.84879209785289
aF155.35007296751203
aF65.50792997674864
aF2653.799384204212
aF121.59027523960327
aF157024.3734654223
aF226.83027737915384
aF35364242.58234682
aF424.79678214104706
aF56335213467.87468
aF795.8622524740636
aF5534272111637451.0
aF1497.5066693894835
assg19
(dp47
g5
(lp48
I1000
aI1172
aI853
aI621
aI1610
aI452
aI2212
aI329
aI3039
aI240
aI4175
aI5736
aI174
aI127
aI7880
aI10826
aI92
aI14874
aI67
aI49
aI20434
aI36
aI28072
aI26
aI38566
aI19
aI52983
aI14
aI72790
aI10
aI100000
asg7
(lp49
F0.012319169831215046
aF0.01317776021556496
aF0.011957171293215992
aF0.012810580172423437
aF0.016523149527084918
aF0.017093435749022196
aF0.023001248144874097
aF0.029723386566301288
aF0.03450793547348826
aF0.06868000436826084
aF0.055115841997765445
aF0.0915966955154661
aF0.17572106977165147
aF0.45689228207466415
aF0.15763605963361313
aF0.2788378664610691
aF1.5222880005598842
aF0.5009413218502398
aF7.236453285448352
aF56.415948878452724
aF0.9116254478060992
aF822.2753734515761
aF1.6749112723956285
aF38542.57272697776
aF3.1017452304555686
aF8538277.266865442
aF5.772612306799727
aF14241385525.558655
aF10.788964715640455
aF1464396316665146.2
aF20.201965491821955
asg9
(lp50
F0.008638757916653994
aF0.009270402301366543
aF0.008371733262818967
aF0.008954306557152595
aF0.0116472513835423
aF0.011911096064753272
aF0.016243787897220613
aF0.020643140464221058
aF0.024397708189707074
aF0.04905938658821918
aF0.03892350829424918
aF0.0649459490192739
aF0.13446906135370112
aF0.3527275504617905
aF0.11189461013680027
aF0.19762397749344218
aF1.1486413824977195
aF0.3545755547616603
aF5.263677765062114
aF40.29971118127231
aF0.6447743088710509
aF557.2040133945536
aF1.187405772110849
aF26367.56980100999
aF2.1970011247874077
aF5889117.769357935
aF4.086908149252344
aF9860655148.923435
aF7.632574964426483
aF1017774804803931.5
aF14.294831743005345
asg11
(lp51
F0.018853710999058942
aF0.02012885972932214
aF0.018318537802253575
aF0.01966433318396043
aF0.025262131603957867
aF0.026115453366611273
aF0.035105347709000465
aF0.04487613721416201
aF0.052727235465130924
aF0.09796738574652533
aF0.08390004083169428
aF0.13949135541768926
aF0.24354089946465804
aF0.6333320337952436
aF0.24032800551720665
aF0.42445815835097384
aF2.1375031596992966
aF0.7615598515893821
aF10.421147251837937
aF79.57558912729908
aF1.3848507613632555
aF1181.048266888467
aF2.550318334396166
aF59267.61838697566
aF4.718734219452032
aF12904741.569266016
aF8.777889605086353
aF21473818543.64091
aF16.393297327354446
aF2198885916964592.0
aF30.702538540373112
asg13
(lp52
F0.012321529529595112
aF0.013154882323366486
aF0.011940670129539997
aF0.012817907355064273
aF0.016552766332823616
aF0.017022976092543406
aF0.023002439145035653
aF0.029715095182375487
aF0.034549010456366526
aF0.06867643454044625
aF0.05511864821892642
aF0.0916397044939744
aF0.17563305972728313
aF0.45673659896988666
aF0.15788496684160835
aF0.27885038515717664
aF1.519649580978895
aF0.5003114058661708
aF7.244631762666135
aF56.414086465649824
aF0.9097861840884724
aF821.0478060487784
aF1.6754472867643415
aF38433.01130908302
aF3.100001414848804
aF8522484.258548813
aF5.766688465516979
aF14219061253.297092
aF10.769677321376522
aF1467630910218941.5
aF20.17022118394691
asg15
(lp53
F0.006642074512047365
aF0.007091303752439746
aF0.006436767491705154
aF0.006859583232983615
aF0.008987634844775322
aF0.009043456049163685
aF0.012579458907441374
aF0.01555399513452467
aF0.018893990093325444
aF0.03648435584961207
aF0.030143010744725383
aF0.050473430990821834
aF0.10977066232955195
aF0.29438101105480974
aF0.08696007939322961
aF0.15358556369985119
aF0.9260364634090142
aF0.2755621415122269
aF4.075105366499701
aF29.969983434876468
aF0.501093171704979
aF404.1094670396331
aF0.9228049509131725
aF19366.634604967618
aF1.7074226542721929
aF4361114.991679275
aF3.1761838813980234
aF7331703458.731314
aF5.931736337164413
aF756747188081641.8
aF11.10937963647076
asg17
(lp54
F0.028960672212381997
aF0.03091939569445635
aF0.028087248908834347
aF0.02999983216702068
aF0.038875668397523946
aF0.03964125582661614
aF0.053887205349978116
aF0.0672623652163462
aF0.08073263375291222
aF0.14040889673888904
aF0.12869674456046742
aF0.21396989987878656
aF0.3422769066507906
aF0.9019018939688609
aF0.3686462170476372
aF0.6494346323323174
aF3.059125441281023
aF1.1652110637653144
aF14.729070977274363
aF111.55002135607707
aF2.124263404165597
aF1679.551838892314
aF3.892129862782468
aF88743.41880640779
aF7.20142506226041
aF19257713.802151836
aF13.396243834891106
aF32100904333.837433
aF25.082273029716006
aF3268963367850573.0
aF46.97587306551305
assg28
(dp55
g5
(lp56
I1000
aI1172
aI853
aI621
aI1610
aI452
aI2212
aI329
aI3039
aI240
aI4175
aI5736
aI174
aI127
aI7880
aI10826
aI92
aI14874
aI67
aI49
aI20434
aI36
aI28072
aI26
aI38566
aI19
aI52983
aI14
aI72790
aI10
aI100000
asg7
(lp57
F0.012320647744873294
aF0.013177533404329105
aF0.011937023838174982
aF0.012841155322325644
aF0.016547907398288243
aF0.017054508716503148
aF0.023022719669012644
aF0.02973321654436521
aF0.0345707375572236
aF0.07027334726111488
aF0.055093800209552526
aF0.0917827124710585
aF0.23157649112581102
aF0.8802645420325943
aF0.15767226968553277
aF0.2785559439009123
aF3.284834409088986
aF0.4975803225579485
aF12.116354466919685
aF66.98742055454278
aF0.9115907057203269
aF848.7334069936369
aF1.6729463932930768
aF42980.07251249844
aF3.103298812081106
aF9925702.513221
aF5.773617494714367
aF16917859199.687452
aF10.75939692779778
aF1783524654465355.8
aF20.212488002431133
asg9
(lp58
F0.00863784456779937
aF0.009235181754323104
aF0.00837541801431471
aF0.008975349607461809
aF0.01164977932388748
aF0.011893501871566563
aF0.01623895775777833
aF0.020643734589870188
aF0.024430097495054374
aF0.049678353192437526
aF0.038870532233816944
aF0.06491290901275809
aF0.1669440806616902
aF0.6304549189911243
aF0.11201139481811996
aF0.1970987071423122
aF2.335624587174659
aF0.3543737298042849
aF8.01774716504162
aF44.3159522950431
aF0.6458827038764815
aF560.8367582971754
aF1.1858066277537207
aF28363.459285487064
aF2.2012763333127805
aF6553181.232613004
aF4.0909199129009295
aF11169600581.098812
aF7.638955802671471
aF1177528474370501.5
aF14.305269702897352
asg11
(lp59
F0.018851718449149162
aF0.020155380765733446
aF0.018278983959538662
aF0.019678736674051494
aF0.025267614699756673
aF0.026102478284515434
aF0.03509490860145357
aF0.04499587905388267
aF0.052659339088548814
aF0.10452725400414217
aF0.08378584969097276
aF0.1397854936304241
aF0.341054611481083
aF1.319042120477481
aF0.2405788473216287
aF0.42332996432975417
aF4.998605249051116
aF0.7611263217747968
aF19.200863513973292
aF108.26689405180589
aF1.3872312505260576
aF1370.162485942521
aF2.5468835149601223
aF69293.86512261127
aF4.71107863602954
aF16009868.608976875
aF8.786506257560378
aF27288095868.33902
aF16.407002432321995
aF2876782357884473.5
aF30.72495781797536
asg13
(lp60
F0.012320226812816653
aF0.01317221362086095
aF0.011945925720077672
aF0.012827296577865865
aF0.016556358974937978
aF0.01705884046780588
aF0.022995599300210907
aF0.029715950405942118
aF0.03459487617622912
aF0.0701391821021928
aF0.05504363008806023
aF0.09159308455109405
aF0.2313271158289185
aF0.8780494213490802
aF0.1580497517719569
aF0.2781092208430989
aF3.2838645186878583
aF0.5000266278356288
aF12.137371297426029
aF67.08607247546763
aF0.9113501460028656
aF849.0020740959919
aF1.6731908701818852
aF42936.978373225546
aF3.094972234188329
aF9920292.092315575
aF5.7723491239692395
aF16908688526.353409
aF10.778680779483217
aF1782558119198586.0
aF20.1849493013194
asg15
(lp61
F0.006641372266283977
aF0.007100646404995355
aF0.00643960058347937
aF0.006814501306991241
aF0.008989585537173354
aF0.008995872902944508
aF0.012575718367302839
aF0.015554442790610327
aF0.018919072908875297
aF0.03698745931170324
aF0.030101985204407936
aF0.05044775360040727
aF0.12831425956135323
aF0.5007625606131473
aF0.08705083984314814
aF0.15317734429248808
aF1.8215186002096715
aF0.27540529111259243
aF5.784216008929592
aF31.97070641409004
aF0.5019545726031408
aF404.6025509363712
aF0.9215621589673665
aF20462.1537559903
aF1.7167424111513387
aF4727639.200244141
aF3.179301665936183
aF8058046875.840297
aF5.936695273074741
aF849500353680576.1
aF11.117491607367326
asg17
(lp62
F0.02895761117780332
aF0.030960131349777657
aF0.02807784932993809
aF0.0300218068760456
aF0.03878614683276541
aF0.03969263449011999
aF0.05387118435137044
aF0.06785608128155898
aF0.08077571176142713
aF0.15678099753273966
aF0.12852158666176144
aF0.21403076251068076
aF0.5080879320110184
aF1.9892538018655805
aF0.36809337711034945
aF0.6493582954465278
aF7.686989055238401
aF1.1675141018031836
aF30.12947072073127
aF173.33477719178643
aF2.1171021087784374
aF2193.6235498181545
aF3.89681402744019
aF111417.82869833094
aF7.208102453614235
aF25742319.251516316
aF13.409393578988896
aF43876617151.92912
aF25.03929851266278
aF4625587609898851.0
aF46.89042948379557
asss.