(dp0
S'csccsc'
p1
(dp2
S'high'
p3
(dp4
S'ctau'
p5
(lp6
sS'limit'
p7
(lp8
sS'16.0'
p9
(lp10
sS'84.0'
p11
(lp12
sS'50.0'
p13
(lp14
sS'2.5'
p15
(lp16
sS'97.5'
p17
(lp18
ssS'comb'
p19
(dp20
g5
(lp21
sg7
(lp22
sg9
(lp23
sg11
(lp24
sg13
(lp25
sg15
(lp26
sg17
(lp27
ssS'low'
p28
(dp29
g5
(lp30
sg7
(lp31
sg9
(lp32
sg11
(lp33
sg13
(lp34
sg15
(lp35
sg17
(lp36
sssS'cscdt'
p37
(dp38
g3
(dp39
g5
(lp40
I1000
aI1172
aI853
aI621
aI1610
aI452
aI2212
aI329
aI3039
aI240
aI4175
aI5736
aI174
aI127
aI7880
aI10826
aI92
aI14874
aI67
aI49
aI20434
aI36
aI28072
aI26
aI38566
aI19
aI52983
aI14
aI72790
aI10
aI100000
asg7
(lp41
F0.2095559671077718
aF0.24891874901642366
aF0.1794205928864308
aF0.1420824132343378
aF0.36999861361142916
aF0.12494664730250604
aF0.5825980262298944
aF0.12642565634982775
aF0.9579071083070889
aF0.1527814688253221
aF1.6325471448666193
aF2.8584341395082973
aF0.23654064348502823
aF0.49513272837328554
aF5.114976021132249
aF9.266975121871
aF1.6302296604408402
aF16.947142854559978
aF9.12727335729287
aF83.60054267976301
aF31.353071835253953
aF1449.0501203329948
aF58.26440926085498
aF81086.40979421529
aF108.61508885155693
aF16336027.976452444
aF203.28717320433833
aF26268957902.478947
aF381.62304871183915
aF2583238228060965.5
aF716.5511293572815
asg9
(lp42
F0.15840967729853558
aF0.1881684789402522
aF0.13603943345264738
aF0.10744579768731392
aF0.27905393226889175
aF0.09441814308195827
aF0.440070474445655
aF0.0954106173420064
aF0.7254348094107412
aF0.11523199892448066
aF1.236677611123737
aF2.163874921846255
aF0.17770401528341054
aF0.37195908908618164
aF3.866356444064046
aF7.003212760561046
aF1.2094560614075966
aF12.848846015917536
aF6.677612154191109
aF66.30984847481993
aF23.710634949537916
aF1162.496329160108
aF44.05921578242023
aF61433.06125821565
aF82.00913888622655
aF11866436.71118469
aF153.7554470343309
aF19046073981.57165
aF288.06281391808835
aF1864209124091775.5
aF541.7255473849665
asg11
(lp43
F0.2994095058152683
aF0.3556565136508587
aF0.25641112085125295
aF0.20308287044080162
aF0.5289084274389634
aF0.1790586327431691
aF0.8322430431526119
aF0.18114084603020217
aF1.3711414514622944
aF0.21913984639202583
aF2.33483330758165
aF4.089931377469026
aF0.33908323609353636
aF0.7136323399825807
aF7.307784846836592
aF13.2367446589799
aF2.356894765273129
aF24.217882364750565
aF12.777002032289579
aF112.70803615509823
aF44.81537658045576
aF1928.0185772240202
aF83.0441006827643
aF112473.69149739853
aF155.43706804842543
aF23884045.11154001
aF290.61256251314614
aF38439272456.072395
aF544.4663856285445
aF3769901859066299.0
aF1022.7717105887293
asg13
(lp44
F0.20930517361767798
aF0.24862519023847518
aF0.17974758691033668
aF0.14196709268620575
aF0.36871126018496153
aF0.1251727035040502
aF0.5834134120902708
aF0.12627643472192845
aF0.9585099933375472
aF0.15276619900300936
aF1.6367490745118893
aF2.8591069935104065
aF0.23638082214852627
aF0.4961069452611527
aF5.10857935318914
aF9.253277247502595
aF1.6294489030591286
aF16.977055897160717
aF9.109575148565122
aF83.68668598147048
aF31.328632501066874
aF1448.7213704236106
aF58.21501543380428
aF81112.03768672778
aF108.35788157354322
aF16332299.989587529
aF203.1555842105224
aF26213951286.464207
aF380.61460832531935
aF2577920517312597.0
aF716.9765024824032
asg15
(lp45
F0.13081573351104872
aF0.155390743899047
aF0.11234224181896042
aF0.0887294329288786
aF0.23044453761560094
aF0.07774398381696868
aF0.3623544239154416
aF0.07867613803963902
aF0.599068745835967
aF0.09488213141202535
aF1.0197713960337749
aF1.7869418709440041
aF0.14589128866979356
aF0.3023151697685149
aF3.1928620957432123
aF5.783298279689122
aF0.9738503209689323
aF10.61065993572545
aF5.266473132764212
aF56.22699214380048
aF19.580395313166797
aF1007.3140778726668
aF36.38438464612768
aF47526.584582067066
aF67.72367598346452
aF9186918.744142985
aF126.97224013157648
aF14745347598.636116
aF237.8841302033246
aF1450080290988336.0
aF446.7099693200911
asg17
(lp46
F0.4376554965476239
aF0.5198733911038622
aF0.3754282167170789
aF0.29685210227753833
aF0.774152946043757
aF0.2617351709631104
aF1.2185413137800702
aF0.26592468953520954
aF2.0042370550498916
aF0.32170932234842425
aF3.4185816271125367
aF5.9783711097898244
aF0.4977927770267224
aF1.0521098799260318
aF10.68200029791407
aF19.34853257265999
aF3.463083597615978
aF35.45897925618288
aF17.84879209785289
aF155.35007296751203
aF65.50792997674864
aF2653.799384204212
aF121.59027523960327
aF157024.3734654223
aF226.83027737915384
aF35364242.58234682
aF424.79678214104706
aF56335213467.87468
aF795.8622524740636
aF5534272111637451.0
aF1497.5066693894835
assg19
(dp47
g5
(lp48
I1000
aI1172
aI853
aI621
aI1610
aI452
aI2212
aI329
aI3039
aI240
aI4175
aI5736
aI174
aI127
aI7880
aI10826
aI92
aI14874
aI67
aI49
aI20434
aI36
aI28072
aI26
aI38566
aI19
aI52983
aI14
aI72790
aI10
aI100000
asg7
(lp49
F0.019573776622945203
aF0.02084335080097872
aF0.019022369701722504
aF0.020491397135940594
aF0.02619360389366556
aF0.02736533515399134
aF0.03635868709912186
aF0.047848954111331145
aF0.05454419051919342
aF0.10012592183092313
aF0.08684480711684386
aF0.1442620369294454
aF0.2089446724594831
aF0.4872191202651659
aF0.2487702771291896
aF0.43877584190950497
aF1.627374520244203
aF0.7857896840410367
aF9.069077181815963
aF82.4603637012915
aF1.4300767254015074
aF1409.5869998642456
aF2.6291488408414376
aF77732.96554214621
aF4.878594413991846
aF15725901.170123369
aF9.079345802507119
aF25461368600.03906
aF16.961707363351263
aF2507012020090918.5
aF31.777284041787947
asg9
(lp50
F0.014595623773010113
aF0.015621517026433059
aF0.01418780066690797
aF0.0151865896625979
aF0.019698930647871697
aF0.02005164888656686
aF0.02732389836422288
aF0.03468018529435089
aF0.041094898627283785
aF0.0747547803223253
aF0.06560559964664914
aF0.10939901692349012
aF0.1564109584014755
aF0.36526605930269174
aF0.18801623685681135
aF0.3312210527265658
aF1.210373104437921
aF0.5967550258108807
aF6.659630028673131
aF65.45676475879479
aF1.085342647461205
aF1134.1171634238701
aF1.9922296224307003
aF58800.69561685686
aF3.686553609866997
aF11503790.188056335
aF6.885493212949731
aF18479256348.59667
aF12.860008773495272
aF1822733878679106.0
aF24.086398731102996
asg11
(lp51
F0.027750395213911982
aF0.029604034406018023
aF0.026947451335842552
aF0.02917229289597485
aF0.03705610414647022
aF0.039179186995949175
aF0.051300845015621835
aF0.06790324463085622
aF0.07690679990472855
aF0.1391739482159525
aF0.12243123464339033
aF0.20349991854640312
aF0.29902372878406114
aF0.7007912271159099
aF0.3501474380950251
aF0.6168414228164184
aF2.358681948814116
aF1.1100611243296543
aF12.691587436173052
aF110.9116573951547
aF2.0189133353114386
aF1867.0567046263454
aF3.708556674157888
aF106279.39301701526
aF6.862558833871912
aF22686112.18654851
aF12.767029593460444
aF36734858886.1806
aF23.84493129331529
aF3628689043254679.0
aF44.66081889697233
asg13
(lp52
F0.019562720868537116
aF0.020869450013134314
aF0.01899668419291629
aF0.020507466004451
aF0.02612280693927397
aF0.027388596528346094
aF0.03626658707059524
aF0.04786858937343261
aF0.0543684446955279
aF0.1003673130214683
aF0.08679603880900351
aF0.1442686327490713
aF0.2084546420831964
aF0.4871799996430561
aF0.24893595900133317
aF0.4385410099698618
aF1.6306843962758735
aF0.7869634854222045
aF9.074465933947154
aF82.59732238201585
aF1.431282512556695
aF1411.3687748689142
aF2.6291333172698024
aF77536.46655827628
aF4.865122379706877
aF15727478.174325349
aF9.051020603415306
aF25466975313.572598
aF16.904555820358354
aF2508708994311027.5
aF31.6617102704101
asg15
(lp53
F0.011615365515693912
aF0.012472757234412305
aF0.011205075441915468
aF0.01177577149474335
aF0.015714501049406998
aF0.015192112136816975
aF0.021958285140399464
aF0.02505621475015613
aF0.033130770986337314
aF0.056064553758085806
aF0.05289133614923651
aF0.08847724742814139
aF0.1262127715738103
aF0.2968753122824873
aF0.15266775610628636
aF0.2689489787705793
aF0.9745887212117524
aF0.4826299500440864
aF5.210728485508717
aF55.17243018486215
aF0.8777787284039107
aF978.5857716376261
aF1.622668219252456
aF45128.64655149674
aF3.002692718725338
aF8969577.396294925
aF5.586176778670385
aF14424653986.20323
aF10.433280545377421
aF1411148809299953.0
aF19.541211807518735
asg17
(lp54
F0.04002368227551155
aF0.04269713910768225
aF0.038865617438771614
aF0.04226596212704637
aF0.05311397509523888
aF0.056752487545704694
aF0.07364894145985376
aF0.09611499140360798
aF0.1104095732209331
aF0.19430056764550965
aF0.1760475420148095
aF0.29261863252999815
aF0.43505914649339844
aF1.0270793671138978
aF0.5027088690715211
aF0.8884026472970554
aF3.4555532322402653
aF1.5911785549672968
aF17.756121803209336
aF153.0976497880443
aF2.8939411831262905
aF2539.53467975199
aF5.332644948328201
aF146241.5661567915
aF9.867879316246928
aF32407776.43280206
aF18.358095034959405
aF52635833548.753746
aF34.28734237515855
aF5238035309736581.0
aF64.21913191692556
assg28
(dp55
g5
(lp56
I1000
aI1172
aI853
aI621
aI1610
aI452
aI2212
aI329
aI3039
aI240
aI4175
aI5736
aI174
aI127
aI7880
aI10826
aI92
aI14874
aI67
aI49
aI20434
aI36
aI28072
aI26
aI38566
aI19
aI52983
aI14
aI72790
aI10
aI100000
asg7
(lp57
F0.01957355123971005
aF0.02089373670297731
aF0.018970201461496167
aF0.020484956935421003
aF0.02612799096167042
aF0.027372940838150988
aF0.036257827957786606
aF0.04809059430608851
aF0.05440307544139845
aF0.1179742093738226
aF0.08681115180301754
aF0.1441493638790199
aF0.45889865494900645
aF2.4963281687556242
aF0.24829378415373862
aF0.4378678541651777
aF11.301544428428986
aF0.7864257857649951
aF42.892908381267354
aF240.31965908267304
aF1.4312640404646892
aF3098.0357352574983
aF2.63045548503554
aF157420.63220389324
aF4.869468179043419
aF36371437.262999885
aF9.061753154052324
aF61993495805.2732
aF16.928272255523748
aF6535515422708727.0
aF31.71121638497008
asg9
(lp58
F0.01462525360678728
aF0.015652117871297624
aF0.014174558114498487
aF0.015161993825941628
aF0.019707928054239727
aF0.020037233713827415
aF0.027352154155660804
aF0.034742265045915446
aF0.041046308852027036
aF0.0837947333411841
aF0.06542329433391551
aF0.10940557525719329
aF0.3153871325102509
aF1.9347247807833798
aF0.18783033868940469
aF0.3321252739998177
aF9.39581170857542
aF0.5959261139975612
aF33.53552637105066
aF187.31724571449612
aF1.0834974688145407
aF2410.926938716036
aF1.9977964518490203
aF122820.2730310344
aF3.6962530430543437
aF28377531.796303187
aF6.8756574284052565
aF48368251380.04154
aF12.831237105631965
aF5099107454511928.0
aF24.0310156454865
asg11
(lp59
F0.02768894177334411
aF0.029537986888275396
aF0.02699795132986038
aF0.029194426124778416
aF0.036968855188965755
aF0.03915101957156323
aF0.05120918655180669
aF0.06930889722485865
aF0.0769099283390069
aF0.171970347547938
aF0.12223953910678077
aF0.20351210241406
aF0.6751163564176766
aF3.3075421032144896
aF0.3493948734693245
aF0.6178068803487795
aF14.43822386169765
aF1.1066634124272192
aF57.11139007702126
aF324.00195966883945
aF2.0178250301291465
aF4172.461050321583
aF3.705723900981188
aF212117.54185168497
aF6.856200606945556
aF49009598.65908194
aF12.78983767969223
aF83534699387.99379
aF23.885484304345137
aF8806446299100555.0
aF44.733991141493284
asg13
(lp60
F0.019519400056500717
aF0.020822889789561146
aF0.018978953144113367
aF0.020408651564593136
aF0.026134738424982897
aF0.027368906808449216
aF0.036304090544908185
aF0.04804940450869697
aF0.0545243006511765
aF0.11824071234708125
aF0.08690572842280457
aF0.14427728147246094
aF0.45915254834262936
aF2.500278498844841
aF0.24769899139465604
aF0.4379861952038807
aF11.288478333453083
aF0.7890139764625677
aF42.9137395292923
aF240.57425364790348
aF1.434564833250429
aF3098.0883893273362
aF2.634569950667607
aF157499.1079983147
aF4.874389074163101
aF36390050.55771388
aF9.067190221103647
aF62025236223.582405
aF16.93330557701765
aF6538862484618122.0
aF31.7135852062546
asg15
(lp61
F0.0115896437835473
aF0.012444930225792404
aF0.011194616893598118
aF0.011798751685780406
aF0.015721678583778775
aF0.015181190495311674
aF0.021980992322112376
aF0.025338553158883167
aF0.03322574570931068
aF0.05865847839093484
aF0.05295817825764654
aF0.08848255152803268
aF0.21702132167757093
aF1.435706794258561
aF0.15190914706625389
aF0.26860872127737995
aF8.33407189461966
aF0.4838874777524341
aF27.32398259091658
aF153.17813806487604
aF0.8797917141418646
aF1984.7128744128247
aF1.6157323525578682
aF100590.25061611115
aF2.9893714243890894
aF23241301.82103992
aF5.560737752786222
aF39613773916.23329
aF10.45102453581558
aF4176187563418214.5
aF19.57322836948526
asg17
(lp62
F0.039935048593454196
aF0.04260187880750581
aF0.038875736298050655
aF0.0421608138287544
aF0.05323956202824747
aF0.05688384975483448
aF0.07363522604225237
aF0.10080984829757067
aF0.11059109705516043
aF0.251839407260493
aF0.17605486774750367
aF0.29263617577081674
aF0.9539790627444911
aF4.398181280681618
aF0.5024054019056102
aF0.8883630452752254
aF19.021876177557107
aF1.591393234658165
aF76.8904052665166
aF443.40112983313685
aF2.8878458487073124
aF5710.070290707139
aF5.320330988886281
aF290285.77121691377
aF9.874607259452084
aF67070309.31807874
aF18.33314872321844
aF114318384154.06476
aF34.23781810561621
aF1.2051742789864098e+16
aF64.12238631318326
asss.