(dp0
S'csccsc'
p1
(dp2
S'high'
p3
(dp4
S'ctau'
p5
(lp6
sS'limit'
p7
(lp8
sS'16.0'
p9
(lp10
sS'84.0'
p11
(lp12
sS'50.0'
p13
(lp14
sS'2.5'
p15
(lp16
sS'97.5'
p17
(lp18
ssS'comb'
p19
(dp20
g5
(lp21
sg7
(lp22
sg9
(lp23
sg11
(lp24
sg13
(lp25
sg15
(lp26
sg17
(lp27
ssS'low'
p28
(dp29
g5
(lp30
sg7
(lp31
sg9
(lp32
sg11
(lp33
sg13
(lp34
sg15
(lp35
sg17
(lp36
sssS'cscdt'
p37
(dp38
g3
(dp39
g5
(lp40
I1000
aI1172
aI853
aI621
aI1610
aI452
aI2212
aI329
aI3039
aI240
aI4175
aI5736
aI174
aI127
aI7880
aI10826
aI92
aI14874
aI67
aI49
aI20434
aI36
aI28072
aI26
aI38566
aI19
aI52983
aI14
aI72790
aI10
aI100000
asg7
(lp41
F0.08008220756088091
aF0.09447507889484531
aF0.06924847434764379
aF0.05521944215016259
aF0.13826037183132087
aF0.048846230143995424
aF0.2140565563309734
aF0.049049827077785435
aF0.3485868501433134
aF0.05755302238235008
aF0.5877335455487072
aF1.0196032546756175
aF0.08362360976269327
aF0.15786219589697795
aF1.8073020449711978
aF3.2567989142420273
aF0.43486291528737175
aF5.9415580627524225
aF1.8831131688308556
aF14.565898001267142
aF10.936711318596924
aF239.34470381792926
aF20.266188249596027
aF14682.302707283727
aF37.69744222173301
aF3726853.592903781
aF70.45735402572448
aF6432630726.522759
aF132.0376126107912
aF641791345013180.6
aF247.91036822574605
asg9
(lp42
F0.040915917528512466
aF0.04830993141671224
aF0.03535275941996257
aF0.028261501501332425
aF0.07063863176894844
aF0.024922920770118758
aF0.1095528004633741
aF0.025141616764211276
aF0.17809158512169515
aF0.029479063372250373
aF0.3002987198125863
aF0.5206647967423442
aF0.0428725929546431
aF0.0807593065919087
aF0.9240691500923108
aF1.6643742741847827
aF0.2219330665379532
aF3.037824241912338
aF0.9607097902465034
aF7.433098901151389
aF5.611674077591489
aF122.44223114851359
aF10.440702237114262
aF7497.825149666209
aF19.332163690305222
aF1903860.0593141487
aF36.10665560415104
aF3286159991.705128
aF67.6291053422403
aF327864208870883.5
aF126.93085543608639
asg11
(lp43
F0.15340872959428423
aF0.1803782555383598
aF0.13365298415993218
aF0.10728481519994557
aF0.26264697454800034
aF0.09577700941182427
aF0.4039200652536908
aF0.0968753191793682
aF0.6538446842593884
aF0.11420534004121165
aF1.0978326375994871
aF1.9034473667521543
aF0.16609343521398495
aF0.31287098460041934
aF3.3638037902117754
aF6.058668701030183
aF0.8632554075136599
aF11.010940205205603
aF3.7368831688310604
aF28.912603616667496
aF20.230257745658076
aF474.3555138492139
aF37.59785020190846
aF29047.449183814286
aF70.07163395095465
aF7375775.93797094
aF130.8726946045899
aF12730967108.93395
aF245.12941178687043
aF1270184187583040.5
aF460.07537395616595
asg13
(lp44
F0.080034192071054
aF0.09449736345886024
aF0.06915229349769182
aF0.05528133244959771
aF0.13817375154040726
aF0.04875085170697537
aF0.21429239288346721
aF0.048912931076985994
aF0.34835870709573225
aF0.05766296254667504
aF0.5874037995952023
aF1.0184541582887496
aF0.08386157628568203
aF0.15797044880633146
aF1.8075392735330016
aF3.2556241772019434
aF0.4341154921391864
aF5.942181516176187
aF1.879210745391441
aF14.539624211612269
aF10.917493093541406
aF239.50495643949935
aF20.203196581183427
aF14666.232957513272
aF37.8149677533382
aF3724073.926910579
aF70.6269633976135
aF6427942371.549286
aF132.28692238864193
aF641323686501976.5
aF248.28499707077833
asg15
(lp45
F0.023134883645539048
aF0.027315644124826788
aF0.01998933483917654
aF0.015979760161211838
aF0.03994085005464897
aF0.014092043071547568
aF0.06194389481787724
aF0.014138894139441263
aF0.1006974387698601
aF0.016668200111148255
aF0.16979641082048816
aF0.2943969051303417
aF0.024241236895079957
aF0.045663332858080184
aF0.5224918212556333
aF0.9410788637224368
aF0.12548650944648357
aF1.717661844519679
aF0.5432093560897134
aF4.202860123669171
aF3.1558378473518123
aF69.23190147079278
aF5.839986511748334
aF4239.4579642811805
aF10.930889116199323
aF1076490.1194975893
aF20.41560660712265
aF1858077091.7759655
aF38.23918850296681
aF185382628129477.6
aF71.76988196577186
asg17
(lp46
F0.24266944528105808
aF0.2865169460229719
aF0.20968335333145807
aF0.1676273164300414
aF0.41893557443997553
aF0.14783431809376907
aF0.6496966052156317
aF0.14833190666197088
aF1.0561402438936789
aF0.17486699755460838
aF1.780831237538652
aF3.087645844654183
aF0.2543161320521438
aF0.47905651299617114
aF5.479801353208269
aF9.869868261545161
aF1.3165128104449548
aF18.014162133461376
aF5.6989561291226565
aF44.09334087967986
aF33.09718663804083
aF726.3156257544041
aF61.24874182999423
aF44476.38576754657
aF114.63887031201743
aF11293516.820574276
aF214.11086081795932
aF19493188567.015537
aF401.03758486872425
aF1944859308137114.5
aF752.6943237206368
assg19
(dp47
g5
(lp48
I1000
aI1172
aI853
aI621
aI1610
aI452
aI2212
aI329
aI3039
aI240
aI4175
aI5736
aI174
aI127
aI7880
aI10826
aI92
aI14874
aI67
aI49
aI20434
aI36
aI28072
aI26
aI38566
aI19
aI52983
aI14
aI72790
aI10
aI100000
asg7
(lp49
F0.015693972335758057
aF0.01709366900001986
aF0.01489939843100701
aF0.014985218935672645
aF0.022089863725437496
aF0.017971466874139603
aF0.031337086976788206
aF0.025902451570523236
aF0.04777673849428276
aF0.04323740720046026
aF0.076947912956854
aF0.1291793939700101
aF0.07821116041124473
aF0.1565875830193709
aF0.22364478866804155
aF0.3962180534650814
aF0.4341792855945473
aF0.7140107131128763
aF1.8842263721705552
aF14.560437476261365
aF1.3026852778974902
aF239.19482344009853
aF2.3984000983209146
aF14646.461431478281
aF4.445633559417225
aF3716406.132152097
aF8.280814508828348
aF6413844650.255268
aF15.479996598066888
aF640036075720966.2
aF29.01266971486999
asg9
(lp50
F0.010320479771151726
aF0.011301855672294227
aF0.009763221475147904
aF0.009737912029165999
aF0.014629502441734091
aF0.011438899909320623
aF0.02083620878755647
aF0.01579498787107303
aF0.03180482017266658
aF0.02457922242735485
aF0.05128959404420617
aF0.0862007427894774
aF0.041561715936410955
aF0.08088285058734977
aF0.14967513276953395
aF0.26466003549361095
aF0.2225370480650523
aF0.47664808650034507
aF0.9652435886145094
aF7.444527424866156
aF0.8699461723030018
aF122.51994070063256
aF1.603505378800902
aF7494.474958707685
aF2.967652709556071
aF1906921.2818661716
aF5.539434103757916
aF3291351032.2951636
aF10.34677262479233
aF328877885100829.1
aF19.38027372623382
asg11
(lp51
F0.0244673606728336
aF0.026557579971078736
aF0.023292688746200683
aF0.02367720489535297
aF0.03424901241068761
aF0.028711139319209374
aF0.04847386202709518
aF0.04264043808238756
aF0.07380123455133783
aF0.07552360390626539
aF0.1190145199155869
aF0.1992844762925373
aF0.14837652898392845
aF0.3087341255807362
aF0.34513657741994624
aF0.6118582279368511
aF0.8621344866065878
aF1.1019460036806068
aF3.7342331910440154
aF28.840969059997523
aF2.0111980354682157
aF474.65655380229526
aF3.6975303433880145
aF29034.471334576087
aF6.860812094140301
aF7387635.75002808
aF12.773406617649401
aF12751078066.24511
aF23.858670658646723
aF1272328330127672.0
aF44.68906246192082
asg13
(lp52
F0.015663801812927272
aF0.01708916093718505
aF0.014873831479736227
aF0.015004791750762317
aF0.02203841191663951
aF0.01796797239962697
aF0.03127196855909176
aF0.0259095996475431
aF0.047734179792879514
aF0.04317173887754951
aF0.07697785085148846
aF0.12889595417201768
aF0.0783869176818415
aF0.15651170710087856
aF0.22380919734380253
aF0.3957461003493038
aF0.43529691923326375
aF0.7127317923904037
aF1.8778781637309414
aF14.56197914625204
aF1.3008303447122735
aF239.65696137048278
aF2.397721285595873
aF14659.679766411975
aF4.437530527823918
aF3730061.877040993
aF8.283114753670686
aF6438096384.088343
aF15.471527122807112
aF639830822239741.6
aF28.9793195884471
asg15
(lp53
F0.007220033648146164
aF0.007943789654394613
aF0.006797805793473197
aF0.006681821326511344
aF0.01033050558592477
aF0.0076504257482786706
aF0.014780891389258215
aF0.010120937362321523
aF0.022561858417728207
aF0.014840285239157647
aF0.03638406231652385
aF0.061426978160102175
aF0.023577315083991388
aF0.04524166533384771
aF0.1066590706091559
aF0.18859775094771508
aF0.1258280157158653
aF0.33966124481105175
aF0.5428241567034752
aF4.209322096963481
aF0.6199269611519428
aF69.27584039615517
aF1.142664050166783
aF4237.5636824784615
aF2.114760642166086
aF1078221.011332162
aF3.947421874796186
aF1861012236.0255365
aF7.373149644462764
aF184951097053675.3
aF13.810456991369323
asg17
(lp54
F0.03731612834508632
aF0.040452614077957666
aF0.03546056850822633
aF0.036195662586795185
aF0.05191224424056239
aF0.044510307824159615
aF0.07360475334237053
aF0.06720901352942306
aF0.1122641201446944
aF0.12343835622380263
aF0.1796927430979469
aF0.30314526429577227
aF0.23766014822053733
aF0.47462303287800844
aF0.5220258429990235
aF0.9238072995358109
aF1.3200685656285929
aF1.6637607760067086
aF5.694914869057297
aF44.16022605041904
aF3.036584797287621
aF726.7765967100978
aF5.5925872782903765
aF44456.51402359378
aF10.35872043294102
aF11311675.676855385
aF19.320029535531635
aF19523979911.582294
aF36.08671011589562
aF1940371921262115.0
aF67.593088713433
assg28
(dp55
g5
(lp56
I1000
aI1172
aI853
aI621
aI1610
aI452
aI2212
aI329
aI3039
aI240
aI4175
aI5736
aI174
aI127
aI7880
aI10826
aI92
aI14874
aI67
aI49
aI20434
aI36
aI28072
aI26
aI38566
aI19
aI52983
aI14
aI72790
aI10
aI100000
asg7
(lp57
F0.01774964412834999
aF0.019132707068767605
aF0.017071614207420323
aF0.01795296942208661
aF0.024375169038495476
aF0.023215479223481248
aF0.03426207925251686
aF0.039248333030423535
aF0.05192115887519305
aF0.09194238555974309
aF0.08328205451377749
aF0.13942011345419655
aF0.3329942496887504
aF1.9679713741380138
aF0.2408999449440291
aF0.42619469783574015
aF25.986466456625166
aF0.7672694327670965
aF209.57595685547932
aF740.0103230305048
aF1.3988173533160984
aF8917.291658176136
aF2.5740792933985173
aF449413.4001804283
aF4.769515280782767
aF103787235.27642584
aF8.881740580163552
aF176898774241.3641
aF16.60015419249727
aF1.8649127069325704e+16
aF31.107721553369423
asg9
(lp58
F0.012090412138922573
aF0.013057485247338288
aF0.011612097247292312
aF0.012214377764904867
aF0.016584212063837336
aF0.01585337978957596
aF0.023384698337778214
aF0.026780863424394334
aF0.03536653120487421
aF0.06283841538825659
aF0.05675603814212356
aF0.09528314443576474
aF0.22811738809921916
aF1.3528367347850216
aF0.16417042299128323
aF0.29120034474233847
aF18.325655930685357
aF0.5242343111660475
aF168.30071252155554
aF552.3023731953551
aF0.9564711384387657
aF6659.8778786189005
aF1.757080358922764
aF334988.7898181171
aF3.261578802535839
aF77464886.67132644
aF6.0680687554344885
aF132035582497.80766
aF11.333675513064033
aF1.3919536192972544e+16
aF21.228133780895092
asg11
(lp59
F0.027019662296357435
aF0.0291514976155616
aF0.025950724779321893
aF0.02729670104516045
aF0.03706241070366848
aF0.035429145819359485
aF0.05207116632797357
aF0.05984989513579346
aF0.07903715212235017
aF0.13992353078619646
aF0.1268384428040193
aF0.2121688504084267
aF0.5052931592405224
aF2.959431474187638
aF0.36688820049777693
aF0.6484215083852548
aF38.110317252365775
aF1.1673228381331213
aF257.6474142356991
aF1011.3233482121059
aF2.129793003677735
aF12233.33425045065
aF3.9125252241710444
aF616263.6289754322
aF7.262621568521877
aF142292982.7820707
aF13.511887858796555
aF242532296557.73172
aF25.236917828816622
aF2.556838858158672e+16
aF47.26910235519365
asg13
(lp60
F0.017750733678400236
aF0.01910123556182058
aF0.01704848795193667
aF0.017932735812554446
aF0.024348378552256904
aF0.02327539535574287
aF0.03420847299697841
aF0.039318756785275036
aF0.051923943479605626
aF0.09192362479653535
aF0.08332729324078608
aF0.1393856284317473
aF0.33370315059085776
aF1.9647971866605616
aF0.2410294556466853
aF0.4259845043087923
aF25.919159769367134
aF0.7668799066200465
aF209.94661747778028
aF737.8141858561457
aF1.3991806368018516
aF8924.868244993626
aF2.5703575536241576
aF450908.3414705908
aF4.771223848280999
aF103810297.9897769
aF8.876717722235595
aF176940208052.0269
aF16.579548179110816
aF1.8653499180898264e+16
aF31.05372713090939
asg15
(lp61
F0.008806028035768868
aF0.00955061778091029
aF0.00845764831990608
aF0.008896318157009432
aF0.012079078422408698
aF0.011546778164763063
aF0.017104236498489207
aF0.019505789498945037
aF0.025759143835585602
aF0.045961812398267674
aF0.041338149381171224
aF0.06969281421587364
aF0.16685157529542888
aF0.9977485713510664
aF0.11957320651222278
aF0.21299225215439616
aF13.76955362747629
aF0.38343995331002323
aF127.93622002552235
aF429.4309128615848
aF0.6995903184009258
aF5159.68945413694
aF1.2851787768120788
aF260681.3849126853
aF2.3856119241404996
aF60015328.52533977
aF4.4383588611177975
aF102293557780.07805
aF8.289774089555408
aF1.0784054213956808e+16
aF15.526863565454695
asg17
(lp62
F0.0406038300121163
aF0.04373080167922658
aF0.03899747968864175
aF0.0410201499644133
aF0.055695578441907236
aF0.053241190778424284
aF0.07825000285304312
aF0.08970624905755654
aF0.11877316844219481
aF0.20917960276666672
aF0.19011227777751874
aF0.3188369816078112
aF0.7540477657371488
aF4.384598784952117
aF0.5499117998031227
aF0.9744161535786598
aF52.26203525352422
aF1.754195732432131
aF318.6300511435032
aF1362.710528801752
aF3.192248358654933
aF16483.84078565782
aF5.879551709957847
aF831523.1595767004
aF10.885608309241066
aF191733076.13378432
aF20.252345156844612
aF326800818786.859
aF37.924807265235394
aF3.4452196437822176e+16
aF71.03369787789428
asss.