(dp0
S'csccsc'
p1
(dp2
S'high'
p3
(dp4
S'ctau'
p5
(lp6
sS'limit'
p7
(lp8
sS'16.0'
p9
(lp10
sS'84.0'
p11
(lp12
sS'50.0'
p13
(lp14
sS'2.5'
p15
(lp16
sS'97.5'
p17
(lp18
ssS'comb'
p19
(dp20
g5
(lp21
sg7
(lp22
sg9
(lp23
sg11
(lp24
sg13
(lp25
sg15
(lp26
sg17
(lp27
ssS'low'
p28
(dp29
g5
(lp30
sg7
(lp31
sg9
(lp32
sg11
(lp33
sg13
(lp34
sg15
(lp35
sg17
(lp36
sssS'cscdt'
p37
(dp38
g3
(dp39
g5
(lp40
I1000
aI1172
aI853
aI621
aI1610
aI452
aI2212
aI329
aI3039
aI240
aI4175
aI5736
aI174
aI127
aI7880
aI10826
aI92
aI14874
aI67
aI49
aI20434
aI36
aI28072
aI26
aI38566
aI19
aI52983
aI14
aI72790
aI10
aI100000
asg7
(lp41
F0.1748568233078508
aF0.2070431319542015
aF0.15103291886633324
aF0.11957775556965113
aF0.3034334063381822
aF0.1042334556832549
aF0.4701439738704359
aF0.10254456002225962
aF0.7635245722611816
aF0.11822910961008223
aF1.2852441330821345
aF2.2262464880100277
aF0.1690009235946858
aF0.31257487545863766
aF3.932880035769545
aF7.04242374360136
aF0.830639494884935
aF12.951149604430057
aF3.545867755513934
aF27.915525641858036
aF23.827378278720268
aF471.24806800880367
aF44.132547858105625
aF29475.55633111902
aF81.99568701423942
aF7536054.005012221
aF153.46405860136807
aF13026060519.880926
aF287.82141737480094
aF1299818262577952.8
aF540.2334543467324
asg9
(lp42
F0.1277505089346497
aF0.1514778542803773
aF0.11019215997317829
aF0.08675704100755795
aF0.22277518477425387
aF0.07521664871780791
aF0.34476671688730887
aF0.07335883827382246
aF0.5617810642367438
aF0.08329730031794808
aF0.9430780553515622
aF1.6413651325362804
aF0.11572029579206242
aF0.20410366260175644
aF2.8991866663696757
aF5.2279595394661635
aF0.5380075310037274
aF9.524752814263717
aF2.310158439644923
aF18.287723663295434
aF17.515275434847243
aF308.25807103853117
aF32.516639397593124
aF19222.71713808484
aF60.52449075952497
aF4925867.220558473
aF113.08061622151257
aF8508839860.491631
aF211.85759661981797
aF849077950715804.8
aF397.7016388819173
asg11
(lp43
F0.25767518537672374
aF0.30417118358060224
aF0.2226292038542673
aF0.17636019190983768
aF0.4446057886113688
aF0.15418007932540248
aF0.6887294848669334
aF0.1527470386095971
aF1.117374401073483
aF0.17806767653213165
aF1.878835945001358
aF3.2557771333271477
aF0.25745826639001773
aF0.4869990750425483
aF5.771696493596956
aF10.37952260309574
aF1.3514747590980367
aF18.91031986346341
aF5.808553196605272
aF45.468249027881704
aF34.86938438751164
aF766.4132999007804
aF64.38214262080916
aF47944.67813839351
aF119.83699632933211
aF12294551.236218553
aF223.89682624340634
aF21155288124.13488
aF420.6193215895453
aF2111038517794480.5
aF789.5916701148599
asg13
(lp44
F0.1752471501976222
aF0.20686948108107875
aF0.15100270567083918
aF0.1192973025487058
aF0.3032022451687469
aF0.10401329950983834
aF0.46968427135755775
aF0.10249530604002108
aF0.762001900526104
aF0.11822097785943012
aF1.28477868530994
aF2.2263536991037682
aF0.16913879533049206
aF0.312570398473354
aF3.9360519010441473
aF7.097687197100897
aF0.8292300459045222
aF12.931185789600326
aF3.5466300482704667
aF27.89814380814082
aF23.77943923802927
aF470.2514186122249
aF44.145891605085
aF29417.61606485915
aF82.17047204209953
aF7543619.062637755
aF153.5227723047118
aF12980338200.586115
aF287.62635590148307
aF1295278691296810.5
aF539.935668830074
asg15
(lp45
F0.1019993178884598
aF0.1204045026604716
aF0.0872984392159539
aF0.06850274794788966
aF0.17765756552856266
aF0.05850748097428407
aF0.2770403319335595
aF0.05645249277985536
aF0.4494620585134441
aF0.06234309379305885
aF0.757818677663285
aF1.3132008147057384
aF0.08258730240746683
aF0.14529639616534815
aF2.3370308162449622
aF4.214251773278658
aF0.38546240415093025
aF7.677891562575194
aF1.6624828351267813
aF13.077254910066008
aF14.11904204757988
aF220.4303524744804
aF26.211623140519215
aF13789.507530402727
aF48.7887177749966
aF3506604.1736480184
aF91.15414605592262
aF6084533531.524741
aF170.7781488165056
aF607161886545379.9
aF320.5868033678564
asg17
(lp46
F0.38561219207272773
aF0.4539245583952032
aF0.3325870412100856
aF0.26446589694835193
aF0.6627869808895744
aF0.23143522476259315
aF1.0267094716287126
aF0.23034772351713967
aF1.6657032151888993
aF0.26878019628874394
aF2.7977682181902046
aF4.834439310189911
aF0.39191266040888284
aF0.7513285350032962
aF8.555622730880081
aF15.412347773973279
aF2.1284895034203304
aF28.079559860088935
aF9.424096002348103
aF73.45496813689668
aF51.68832321713421
aF1238.1576963445234
aF95.76414303838779
aF77455.68680867607
aF178.24953924512118
aF19862119.15443414
aF333.03159574071884
aF34176837213.512543
aF624.5693215567311
aF3410429550794274.0
aF1172.4490730640316
assg19
(dp47
g5
(lp48
I1000
aI1172
aI853
aI621
aI1610
aI452
aI2212
aI329
aI3039
aI240
aI4175
aI5736
aI174
aI127
aI7880
aI10826
aI92
aI14874
aI67
aI49
aI20434
aI36
aI28072
aI26
aI38566
aI19
aI52983
aI14
aI72790
aI10
aI100000
asg7
(lp49
F0.004706312452072912
aF0.005061142462478757
aF0.004521250451707699
aF0.004731963363994706
aF0.006450239851985212
aF0.006056181339615613
aF0.009065373498609891
aF0.009997895044707666
aF0.01372136933427454
aF0.022097066444947647
aF0.02206482710731266
aF0.03691330368336896
aF0.066387659171501
aF0.21572323357032797
aF0.06375921695395195
aF0.11276704337047552
aF0.7706236928687553
aF0.20296696513611792
aF3.5299209876023805
aF27.933982086016396
aF0.3699717884747698
aF470.71957470570425
aF0.6807356198429607
aF29374.238789451556
aF1.2612006504095057
aF7487099.619603439
aF2.3484507949354554
aF12936529093.111134
aF4.389107587446075
aF1292027541616872.8
aF8.22466522449559
asg9
(lp50
F0.003278552449860361
aF0.0035356697607790786
aF0.003128768478132225
aF0.0032732972034670033
aF0.00450074029039058
aF0.004154528584366649
aF0.006345554387740302
aF0.006782616560078562
aF0.00960481905862745
aF0.014791891145194875
aF0.015434182144013996
aF0.025820290576208837
aF0.04344515613725101
aF0.14223259066187116
aF0.044768622831174165
aF0.07901138686118847
aF0.5039446350713142
aF0.14238362020762096
aF2.313333116772444
aF18.282244840447976
aF0.2592026597469544
aF306.47043647001345
aF0.47783097242351724
aF19129.5304667109
aF0.8846424841964273
aF4896365.926435461
aF1.6463611025656033
aF8486142002.403709
aF3.075689449491786
aF842945934338396.4
aF5.778344974517442
asg11
(lp51
F0.007201521237320514
aF0.007766293588344744
aF0.006916306223643122
aF0.007260049961854546
aF0.009877701846251469
aF0.009362465823283464
aF0.013876678818444984
aF0.015552689477773824
aF0.02100415235824525
aF0.03444863718451605
aF0.033576157822518465
aF0.05617052572659359
aF0.10351182093576562
aF0.345375248025869
aF0.09704444707151899
aF0.17172060884012466
aF1.2436966322731267
aF0.30864338466402846
aF5.751574424837592
aF45.454627970368946
aF0.563342037016717
aF766.8238538588874
aF1.0357888356693035
aF47864.2597829249
aF1.9176295836203527
aF12212356.961824445
aF3.578144083979068
aF21098854164.70876
aF6.6845967088908065
aF2109146669623336.8
aF12.525653169843794
asg13
(lp52
F0.004694206356594613
aF0.005062344958542727
aF0.0045200372758767635
aF0.004720093415032862
aF0.0064554082918462105
aF0.00605558438915201
aF0.009068873263148737
aF0.010007780054064044
aF0.013726915165435463
aF0.02216686586690504
aF0.022058063524731795
aF0.036901573691609
aF0.06643694587947738
aF0.21614235175106405
aF0.06375394319565038
aF0.1125182583514743
aF0.7706392478073932
aF0.20276516588280416
aF3.5290176708752066
aF27.8897857975698
aF0.3691244134979662
aF470.5033387485664
aF0.6804678532974278
aF29368.274659538176
aF1.2597985624575632
aF7493186.936177713
aF2.344544137717066
aF12945712343.331692
aF4.3800170308972985
aF1294117896195679.0
aF8.228805220555737
asg15
(lp53
F0.0024571236397799927
aF0.0026498211892372085
aF0.0023483006159828496
aF0.0024337981671263198
aF0.003404219216403275
aF0.00305144682109613
aF0.004817838921047766
aF0.004847518463687272
aF0.007292423681637589
aF0.010217539735526544
aF0.011718346247513767
aF0.01960396102366728
aF0.030104241101638184
aF0.10216103344483887
aF0.03411832116329727
aF0.060214849195906174
aF0.3642474569714632
aF0.10851104580446941
aF1.654227033222753
aF13.073337092610844
aF0.197539236911021
aF220.5484400383905
aF0.3641566246162016
aF13766.37874665852
aF0.6741890744401803
aF3512431.3763333033
aF1.2546974487001485
aF6068302660.93673
aF2.3439934891911327
aF606617763841724.5
aF4.403696543813031
asg17
(lp54
F0.011124756192378868
aF0.011997204457445553
aF0.01070397173713478
aF0.011194484431252974
aF0.015172870368702832
aF0.014524752739828797
aF0.021315590057052053
aF0.024038657959554097
aF0.03226390804197264
aF0.05324474956206521
aF0.051634316414220775
aF0.08638054252332016
aF0.15892551214772374
aF0.5281186404144603
aF0.14923755161725244
aF0.26425929612998683
aF1.939603597546971
aF0.4746400738737784
aF9.29179668101249
aF73.43295861026837
aF0.8647380163518147
aF1228.4474165428508
aF1.5888270770843298
aF76678.26869102813
aF2.9489822294203223
aF19564125.413737398
aF5.492501903289649
aF33800243751.913
aF10.260950728813988
aF3378840690470030.0
aF19.213469700328126
assg28
(dp55
g5
(lp56
I1000
aI1172
aI853
aI621
aI1610
aI452
aI2212
aI329
aI3039
aI240
aI4175
aI5736
aI174
aI127
aI7880
aI10826
aI92
aI14874
aI67
aI49
aI20434
aI36
aI28072
aI26
aI38566
aI19
aI52983
aI14
aI72790
aI10
aI100000
asg7
(lp57
F0.004706454162812652
aF0.00507427555320882
aF0.004522090683170181
aF0.00473333938787454
aF0.006450154193114794
aF0.006075807925898994
aF0.009076282571336573
aF0.010025444328417205
aF0.013750895223961262
aF0.02258467726295957
aF0.022058962697753058
aF0.03682728376567464
aF0.07516809850489052
aF0.3753119286329408
aF0.06359059779088444
aF0.1128178068797416
aF3.2433077995493647
aF0.2029331101994798
aF43.25315367365474
aF337.1760856709131
aF0.3699344381035156
aF3848.1143021345642
aF0.6808399122452135
aF184460.4139224309
aF1.2594687293356128
aF42572065.232511364
aF2.3449528028889106
aF72557909172.94012
aF4.38074677683842
aF7649240442475776.0
aF8.206699162001977
asg9
(lp58
F0.003278732792530305
aF0.0035380963500201506
aF0.003129487779203501
aF0.0032757458597627047
aF0.004502550464131692
aF0.004157859043609421
aF0.006353830616663598
aF0.00681632623965733
aF0.009629132897057217
aF0.01505880231371245
aF0.015419434998466992
aF0.025871501843471333
aF0.048739996336624195
aF0.23344564592185338
aF0.04467834079092198
aF0.07905766641575364
aF2.009212619943812
aF0.14243850350994822
aF33.568801238188485
aF282.47241681713734
aF0.2592556013871046
aF3032.335311892396
aF0.47789027475290624
aF145602.2843411923
aF0.884668317029282
aF33530052.253929935
aF1.646295839383223
aF57150665775.131
aF3.075413784593805
aF6024972645315375.0
aF5.777909346642086
asg11
(lp59
F0.007201917636142157
aF0.007751431372907178
aF0.00691789678499774
aF0.00726548128585631
aF0.009881675183105539
aF0.009369970731994755
aF0.01385858225464449
aF0.015589897603129297
aF0.02100236217854337
aF0.03534010173504799
aF0.03363191886917363
aF0.05622822209220945
aF0.12010710570940769
aF0.6100613993915402
aF0.09710235658832972
aF0.17182117923363413
aF5.379705519804504
aF0.3087623385893787
aF56.89195406123223
aF426.79950293193053
aF0.5634571249685157
aF5120.311350791152
aF1.035917452413994
aF245859.69888926178
aF1.917685706582327
aF56473311.38237762
aF3.5780019941256946
aF96256555748.45941
aF6.683997122996326
aF1.0147617835260696e+16
aF12.524709674393295
asg13
(lp60
F0.004694464569852007
aF0.005065819330484152
aF0.004521076428398745
aF0.004723624376549213
aF0.006458004622632727
aF0.0060604388212710065
aF0.009080701397716015
aF0.010057518832001592
aF0.013725745030919214
aF0.02256685421273802
aF0.022036987353007954
aF0.03684299749703906
aF0.07516529555527587
aF0.376157893664796
aF0.06362537466479493
aF0.11258416397702804
aF3.2375038911447103
aF0.20284332390325874
aF43.267217833180986
aF336.8410842557574
aF0.3691998064429658
aF3847.4236622043686
aF0.6805523043504229
aF184740.0160029501
aF1.2598353503874624
aF42690008.63569088
aF2.3444511979534743
aF72763454020.26237
aF4.379624462997384
aF7670913612374955.0
aF8.228184853140716
asg15
(lp61
F0.00245725879828191
aF0.0026516398058002984
aF0.0023488404881915354
aF0.0024356188191581875
aF0.0034055883752164774
aF0.0030538929997810933
aF0.004824122617536633
aF0.004871610684250772
aF0.007291802047675833
aF0.010401909363683931
aF0.011707149531285476
aF0.019716760379274806
aF0.03288481680543319
aF0.1586916113898358
aF0.03404951691045666
aF0.060250119003331416
aF1.3658219540766745
aF0.1085528725576033
aF24.16879746150344
aF251.972920449131
aF0.1975795839167434
aF2509.842779641131
aF0.364201819125031
aF120513.99481442448
aF0.6742087617307905
aF27848560.32093897
aF1.2546477114047891
aF47466784458.530525
aF2.343783404025944
aF5004072551822724.0
aF4.4033645503135865
asg17
(lp62
F0.011125368041714597
aF0.011996446938459934
aF0.010706432826266188
aF0.011202858895038002
aF0.015178973086727958
aF0.014536396376865735
aF0.021326848788990375
aF0.024140906246734577
aF0.03226115791277852
aF0.055361548269963215
aF0.05175585887099592
aF0.0865291114079577
aF0.18789434182814987
aF0.96869472313819
aF0.14942994265895074
aF0.2637479388969564
aF8.658742096365252
aF0.4748230136450684
aF76.14470565447569
aF559.8332879742339
aF0.8649146496725516
aF6893.595806031557
aF1.5890243106250164
aF331006.69358586945
aF2.9490684732619443
aF76240940.0555279
aF5.492283838351966
aF129949707519.00867
aF10.260030440031702
aF1.3699638008582172e+16
aF19.212021784323667
asss.