(dp0
S'csccsc'
p1
(dp2
S'high'
p3
(dp4
S'ctau'
p5
(lp6
I1000
aI1172
aI853
aI621
aI1610
aI452
aI2212
aI329
aI3039
aI240
aI4175
aI5736
aI174
aI127
aI7880
aI10826
aI92
aI14874
aI67
aI49
aI20434
aI36
aI28072
aI26
aI38566
aI19
aI52983
aI14
aI72790
aI10
aI100000
asS'limit'
p7
(lp8
I1
aI1
aI1
aI1
aI1
aI1
aI1
aI1
aI1
aI1
aI1
aI1
aI1
aI1
aI1
aI1
aI1
aI1
aI1
aI1
aI1
aI1
aI1
aI1
aI1
aI1
aI1
aI1
aI1
aI1
aI1
asS'16.0'
p9
(lp10
I1
aI1
aI1
aI1
aI1
aI1
aI1
aI1
aI1
aI1
aI1
aI1
aI1
aI1
aI1
aI1
aI1
aI1
aI1
aI1
aI1
aI1
aI1
aI1
aI1
aI1
aI1
aI1
aI1
aI1
aI1
asS'84.0'
p11
(lp12
I1
aI1
aI1
aI1
aI1
aI1
aI1
aI1
aI1
aI1
aI1
aI1
aI1
aI1
aI1
aI1
aI1
aI1
aI1
aI1
aI1
aI1
aI1
aI1
aI1
aI1
aI1
aI1
aI1
aI1
aI1
asS'50.0'
p13
(lp14
I1
aI1
aI1
aI1
aI1
aI1
aI1
aI1
aI1
aI1
aI1
aI1
aI1
aI1
aI1
aI1
aI1
aI1
aI1
aI1
aI1
aI1
aI1
aI1
aI1
aI1
aI1
aI1
aI1
aI1
aI1
asS'2.5'
p15
(lp16
I1
aI1
aI1
aI1
aI1
aI1
aI1
aI1
aI1
aI1
aI1
aI1
aI1
aI1
aI1
aI1
aI1
aI1
aI1
aI1
aI1
aI1
aI1
aI1
aI1
aI1
aI1
aI1
aI1
aI1
aI1
asS'97.5'
p17
(lp18
I1
aI1
aI1
aI1
aI1
aI1
aI1
aI1
aI1
aI1
aI1
aI1
aI1
aI1
aI1
aI1
aI1
aI1
aI1
aI1
aI1
aI1
aI1
aI1
aI1
aI1
aI1
aI1
aI1
aI1
aI1
assS'comb'
p19
(dp20
g5
(lp21
I1000
aI1172
aI853
aI621
aI1610
aI452
aI2212
aI329
aI3039
aI240
aI4175
aI5736
aI174
aI127
aI7880
aI10826
aI92
aI14874
aI67
aI49
aI20434
aI36
aI28072
aI26
aI38566
aI19
aI52983
aI14
aI72790
aI10
aI100000
asg7
(lp22
I1
aI1
aI1
aI1
aI1
aI1
aI1
aI1
aI1
aI1
aI1
aI1
aI1
aI1
aI1
aI1
aI1
aI1
aI1
aI1
aI1
aI1
aI1
aI1
aI1
aI1
aI1
aI1
aI1
aI1
aI1
asg9
(lp23
I1
aI1
aI1
aI1
aI1
aI1
aI1
aI1
aI1
aI1
aI1
aI1
aI1
aI1
aI1
aI1
aI1
aI1
aI1
aI1
aI1
aI1
aI1
aI1
aI1
aI1
aI1
aI1
aI1
aI1
aI1
asg11
(lp24
I1
aI1
aI1
aI1
aI1
aI1
aI1
aI1
aI1
aI1
aI1
aI1
aI1
aI1
aI1
aI1
aI1
aI1
aI1
aI1
aI1
aI1
aI1
aI1
aI1
aI1
aI1
aI1
aI1
aI1
aI1
asg13
(lp25
I1
aI1
aI1
aI1
aI1
aI1
aI1
aI1
aI1
aI1
aI1
aI1
aI1
aI1
aI1
aI1
aI1
aI1
aI1
aI1
aI1
aI1
aI1
aI1
aI1
aI1
aI1
aI1
aI1
aI1
aI1
asg15
(lp26
I1
aI1
aI1
aI1
aI1
aI1
aI1
aI1
aI1
aI1
aI1
aI1
aI1
aI1
aI1
aI1
aI1
aI1
aI1
aI1
aI1
aI1
aI1
aI1
aI1
aI1
aI1
aI1
aI1
aI1
aI1
asg17
(lp27
I1
aI1
aI1
aI1
aI1
aI1
aI1
aI1
aI1
aI1
aI1
aI1
aI1
aI1
aI1
aI1
aI1
aI1
aI1
aI1
aI1
aI1
aI1
aI1
aI1
aI1
aI1
aI1
aI1
aI1
aI1
assS'low'
p28
(dp29
g5
(lp30
I1000
aI1172
aI853
aI621
aI1610
aI452
aI2212
aI329
aI3039
aI240
aI4175
aI5736
aI174
aI127
aI7880
aI10826
aI92
aI14874
aI67
aI49
aI20434
aI36
aI28072
aI26
aI38566
aI19
aI52983
aI14
aI72790
aI10
aI100000
asg7
(lp31
F0.024691836831890652
aF0.03010927757354736
aF0.02068049661598173
aF0.015318052479642958
aF0.04646519794816342
aF0.012421880151174448
aF0.07558794313266533
aF0.011273882171531005
aF0.12735803853861877
aF0.011668467571869807
aF0.22094894894504982
aF0.39099511881780663
aF0.014129647880837834
aF0.020506327737742917
aF0.704743778886432
aF1.2859966095636919
aF0.037830509843466614
aF2.368216442801551
aF0.09198784956972864
aF0.3148675864691075
aF4.389415507432775
aF1.656101919421367
aF8.189352448467051
aF18.805623499518386
aF15.30774562168144
aF555.9069827146975
aF28.688796328077004
aF32607.775895450526
aF53.87105943022267
aF903561.1129830547
aF101.2952596246485
asg9
(lp32
F0.01709194393337223
aF0.020726378553733698
aF0.014233842810623844
aF0.010579528218400044
aF0.03213870099846273
aF0.008557912875237083
aF0.05218437814982719
aF0.007772550021692402
aF0.08804684725315233
aF0.00806132340760739
aF0.15260915695076777
aF0.2709599301463842
aF0.00972525708880822
aF0.014116684031197117
aF0.4881248901542471
aF0.8912407353814469
aF0.026171599249717653
aF1.642754576585035
aF0.06371277059561749
aF0.21686418093606766
aF3.0297058843222953
aF1.144485316212491
aF5.672171320185443
aF13.082134552566123
aF10.582906636011979
aF399.9910118984909
aF19.823558011561662
aF28273.747467904643
aF37.24146151308041
aF653852.890433277
aF70.11030387792997
asg11
(lp33
F0.03698545987051439
aF0.0448605486008551
aF0.030890390255522118
aF0.02289316594998374
aF0.06954531678448075
aF0.018621987932660157
aF0.1129223957170045
aF0.016868045536926255
aF0.19001872724868013
aF0.017443992883189516
aF0.3293541879880321
aF0.584773491068255
aF0.021105824525418506
aF0.030636130088014878
aF1.0534490831291945
aF1.9234354754899818
aF0.056633030086497255
aF3.53586148479247
aF0.1376204919032966
aF0.4706402350657309
aF6.557550184932501
aF2.46338768496424
aF12.208769568877418
aF27.833872010903924
aF22.839550560357736
aF792.1152014576359
aF42.78230874436127
aF38408.943606711735
aF80.37284127086947
aF1274112.0489078374
aF150.90526584933858
asg13
(lp34
F0.02468568489107639
aF0.030102028740747532
aF0.020672571634541358
aF0.015279882786518541
aF0.04641753148438058
aF0.0124291148433547
aF0.07536925701752192
aF0.011288490342647665
aF0.12716498108212693
aF0.011642870478688247
aF0.2204115327469481
aF0.39134410221424176
aF0.014124511314868707
aF0.020502415669456035
aF0.7049927891649492
aF1.2872080578710883
aF0.03779931964980378
aF2.37261027704242
aF0.09234519050235288
aF0.3149634554079011
aF4.400203989782509
aF1.6529660984507628
aF8.1922474356416
aF18.827977205660872
aF15.284762193619558
aF555.2832349555053
aF28.63092158510457
aF32567.286172254615
aF53.78738588066903
aF903265.2408818558
aF101.25945158110055
asg15
(lp35
F0.012535699358749729
aF0.015286186469910857
aF0.010497790283165533
aF0.007759315477528947
aF0.023571402706912013
aF0.006311659881391059
aF0.03827345082921035
aF0.005732436502125768
aF0.06457596695576757
aF0.0059123951649588755
aF0.11192773147305958
aF0.19872942690566966
aF0.007172603402081765
aF0.010411382957145644
aF0.3580041507478258
aF0.653660341887662
aF0.01919496700966598
aF1.2048411563106038
aF0.046533318651576255
aF0.1599423796993248
aF2.2344785885614304
aF0.839396846869528
aF4.160125650911749
aF9.634628960709275
aF7.761793301447431
aF303.67051911629204
aF14.539139867435916
aF18827.9623183347
aF27.31390689252724
aF493973.17860726494
aF51.42081525602762
asg17
(lp36
F0.05409175740365654
aF0.06582797776808126
aF0.045252759880091406
aF0.033573650330835286
aF0.10171100740908061
aF0.02730981521364981
aF0.16515059187025036
aF0.024778976658311965
aF0.2783672027918028
aF0.025652399797592453
aF0.4824861606624303
aF0.8566616968271591
aF0.03100422682691414
aF0.0450041449980834
aF1.543246276987051
aF2.8177293614174648
aF0.0832821470746129
aF5.188492042001518
aF0.2019431048894532
aF0.6894625994421452
aF9.622491989130708
aF3.6147535608759997
aF17.915041099340993
aF40.47495835390345
aF33.458712556294934
aF1110.7644628103658
aF62.673777057299645
aF46105.27670393717
aF117.74188372197675
aF1763056.4421228385
aF221.437066082718
asssS'cscdt'
p37
(dp38
g3
(dp39
g5
(lp40
sg7
(lp41
sg9
(lp42
sg11
(lp43
sg13
(lp44
sg15
(lp45
sg17
(lp46
ssg19
(dp47
g5
(lp48
sg7
(lp49
sg9
(lp50
sg11
(lp51
sg13
(lp52
sg15
(lp53
sg17
(lp54
ssg28
(dp55
g5
(lp56
sg7
(lp57
sg9
(lp58
sg11
(lp59
sg13
(lp60
sg15
(lp61
sg17
(lp62
sss.