(dp0
S'csccsc'
p1
(dp2
S'high'
p3
(dp4
S'ctau'
p5
(lp6
sS'limit'
p7
(lp8
sS'16.0'
p9
(lp10
sS'84.0'
p11
(lp12
sS'50.0'
p13
(lp14
sS'2.5'
p15
(lp16
sS'97.5'
p17
(lp18
ssS'comb'
p19
(dp20
g5
(lp21
sg7
(lp22
sg9
(lp23
sg11
(lp24
sg13
(lp25
sg15
(lp26
sg17
(lp27
ssS'low'
p28
(dp29
g5
(lp30
sg7
(lp31
sg9
(lp32
sg11
(lp33
sg13
(lp34
sg15
(lp35
sg17
(lp36
sssS'cscdt'
p37
(dp38
g3
(dp39
g5
(lp40
I1000
aI1172
aI853
aI621
aI1610
aI452
aI2212
aI329
aI3039
aI240
aI4175
aI5736
aI174
aI127
aI7880
aI10826
aI92
aI14874
aI67
aI49
aI20434
aI36
aI28072
aI26
aI38566
aI19
aI52983
aI14
aI72790
aI10
aI100000
asg7
(lp41
F0.2095559671077718
aF0.24891874901642366
aF0.1794205928864308
aF0.1420824132343378
aF0.36999861361142916
aF0.12494664730250604
aF0.5825980262298944
aF0.12642565634982775
aF0.9579071083070889
aF0.1527814688253221
aF1.6325471448666193
aF2.8584341395082973
aF0.23654064348502823
aF0.49513272837328554
aF5.114976021132249
aF9.266975121871
aF1.6302296604408402
aF16.947142854559978
aF9.12727335729287
aF83.60054267976301
aF31.353071835253953
aF1449.0501203329948
aF58.26440926085498
aF81086.40979421529
aF108.61508885155693
aF16336027.976452444
aF203.28717320433833
aF26268957902.478947
aF381.62304871183915
aF2583238228060965.5
aF716.5511293572815
asg9
(lp42
F0.15840967729853558
aF0.1881684789402522
aF0.13603943345264738
aF0.10744579768731392
aF0.27905393226889175
aF0.09441814308195827
aF0.440070474445655
aF0.0954106173420064
aF0.7254348094107412
aF0.11523199892448066
aF1.236677611123737
aF2.163874921846255
aF0.17770401528341054
aF0.37195908908618164
aF3.866356444064046
aF7.003212760561046
aF1.2094560614075966
aF12.848846015917536
aF6.677612154191109
aF66.30984847481993
aF23.710634949537916
aF1162.496329160108
aF44.05921578242023
aF61433.06125821565
aF82.00913888622655
aF11866436.71118469
aF153.7554470343309
aF19046073981.57165
aF288.06281391808835
aF1864209124091775.5
aF541.7255473849665
asg11
(lp43
F0.2994095058152683
aF0.3556565136508587
aF0.25641112085125295
aF0.20308287044080162
aF0.5289084274389634
aF0.1790586327431691
aF0.8322430431526119
aF0.18114084603020217
aF1.3711414514622944
aF0.21913984639202583
aF2.33483330758165
aF4.089931377469026
aF0.33908323609353636
aF0.7136323399825807
aF7.307784846836592
aF13.2367446589799
aF2.356894765273129
aF24.217882364750565
aF12.777002032289579
aF112.70803615509823
aF44.81537658045576
aF1928.0185772240202
aF83.0441006827643
aF112473.69149739853
aF155.43706804842543
aF23884045.11154001
aF290.61256251314614
aF38439272456.072395
aF544.4663856285445
aF3769901859066299.0
aF1022.7717105887293
asg13
(lp44
F0.20930517361767798
aF0.24862519023847518
aF0.17974758691033668
aF0.14196709268620575
aF0.36871126018496153
aF0.1251727035040502
aF0.5834134120902708
aF0.12627643472192845
aF0.9585099933375472
aF0.15276619900300936
aF1.6367490745118893
aF2.8591069935104065
aF0.23638082214852627
aF0.4961069452611527
aF5.10857935318914
aF9.253277247502595
aF1.6294489030591286
aF16.977055897160717
aF9.109575148565122
aF83.68668598147048
aF31.328632501066874
aF1448.7213704236106
aF58.21501543380428
aF81112.03768672778
aF108.35788157354322
aF16332299.989587529
aF203.1555842105224
aF26213951286.464207
aF380.61460832531935
aF2577920517312597.0
aF716.9765024824032
asg15
(lp45
F0.13081573351104872
aF0.155390743899047
aF0.11234224181896042
aF0.0887294329288786
aF0.23044453761560094
aF0.07774398381696868
aF0.3623544239154416
aF0.07867613803963902
aF0.599068745835967
aF0.09488213141202535
aF1.0197713960337749
aF1.7869418709440041
aF0.14589128866979356
aF0.3023151697685149
aF3.1928620957432123
aF5.783298279689122
aF0.9738503209689323
aF10.61065993572545
aF5.266473132764212
aF56.22699214380048
aF19.580395313166797
aF1007.3140778726668
aF36.38438464612768
aF47526.584582067066
aF67.72367598346452
aF9186918.744142985
aF126.97224013157648
aF14745347598.636116
aF237.8841302033246
aF1450080290988336.0
aF446.7099693200911
asg17
(lp46
F0.4376554965476239
aF0.5198733911038622
aF0.3754282167170789
aF0.29685210227753833
aF0.774152946043757
aF0.2617351709631104
aF1.2185413137800702
aF0.26592468953520954
aF2.0042370550498916
aF0.32170932234842425
aF3.4185816271125367
aF5.9783711097898244
aF0.4977927770267224
aF1.0521098799260318
aF10.68200029791407
aF19.34853257265999
aF3.463083597615978
aF35.45897925618288
aF17.84879209785289
aF155.35007296751203
aF65.50792997674864
aF2653.799384204212
aF121.59027523960327
aF157024.3734654223
aF226.83027737915384
aF35364242.58234682
aF424.79678214104706
aF56335213467.87468
aF795.8622524740636
aF5534272111637451.0
aF1497.5066693894835
assg19
(dp47
g5
(lp48
I1000
aI1172
aI853
aI621
aI1610
aI452
aI2212
aI329
aI3039
aI240
aI4175
aI5736
aI174
aI127
aI7880
aI10826
aI92
aI14874
aI67
aI49
aI20434
aI36
aI28072
aI26
aI38566
aI19
aI52983
aI14
aI72790
aI10
aI100000
asg7
(lp49
F0.017485881056359485
aF0.018753151024994495
aF0.01687960508495005
aF0.017998025839895383
aF0.023669275718973867
aF0.023671884016727002
aF0.03302854264859979
aF0.040776061621340474
aF0.04976803228539375
aF0.0864325397178931
aF0.07946815194338942
aF0.1325764593827374
aF0.19371508638546184
aF0.4789352505594416
aF0.22847835888978602
aF0.4034317917227993
aF1.6294109004656983
aF0.7252485132868182
aF9.099450568750656
aF83.12985702452507
aF1.3207990910974203
aF1432.790710926439
aF2.4286045348280765
aF79698.4643658029
aF4.4973766519646245
aF16116830.277556323
aF8.371440770630599
aF25962762690.962852
aF15.641588031480461
aF2548664743056580.5
aF29.30483809725137
asg9
(lp50
F0.011857259134433584
aF0.012837931292395606
aF0.011311753540474416
aF0.011809996645281505
aF0.01635301411605951
aF0.015200182591412285
aF0.023040816951968815
aF0.02549166627275376
aF0.03511239766196816
aF0.05863154149846402
aF0.05604853337870204
aF0.09411895854256591
aF0.14284184214155407
aF0.3590511155056321
aF0.1623649091065145
aF0.2876660961875745
aF1.2097340609419247
aF0.5177969234524991
aF6.660596343776459
aF65.86607435840787
aF0.9454172122112088
aF1152.2698121166677
aF1.7322949286774603
aF60326.98333341438
aF3.223377261525041
aF11680985.014691953
aF5.986757830250182
aF18774398690.9271
aF11.181478938853207
aF1845527936529076.2
aF20.942609601142518
asg11
(lp51
F0.025446506640989765
aF0.027229301647057346
aF0.02466560390571786
aF0.026493055120383205
aF0.03415357380809227
aF0.035144181338659264
aF0.04755004478750324
aF0.060900685722642615
aF0.07138659662037314
aF0.12644706448451487
aF0.11395160431088752
aF0.19016769595259322
aF0.2791991832800089
aF0.6888673824828199
aF0.32714729465810033
aF0.5779510912965297
aF2.357436593568493
aF1.0371603686926618
aF12.714883379622743
aF111.95374142284157
aF1.8884326578412378
aF1908.3723651571984
aF3.4689105094262107
aF109989.3417696367
aF6.437031000266558
aF23413097.544692963
aF11.955041914025491
aF37656118741.66284
aF22.328454426424855
aF3711778185098324.5
aF41.82059516515782
asg13
(lp52
F0.01744829653840128
aF0.018773354721046912
aF0.016866742810987698
aF0.01796944511852639
aF0.023612213208559
aF0.02370904337182967
aF0.03305610726278958
aF0.040647733354043564
aF0.04976483765516317
aF0.08623152386991334
aF0.07943764453950296
aF0.132569207080588
aF0.19355890676099757
aF0.4788907095770333
aF0.22869555285429277
aF0.4028997537987024
aF1.62982344005201
aF0.7230225247237179
aF9.117106854624964
aF83.12661857095628
aF1.3201274645134398
aF1433.9591053677782
aF2.4249760860775385
aF79549.0780631518
aF4.487366220819633
aF16098015.6016918
aF8.380642540227187
aF25962166454.435318
aF15.65254194584509
aF2552087247813334.5
aF29.31679047377982
asg15
(lp53
F0.00790625936896308
aF0.008506676357974382
aF0.007510971408017959
aF0.007861632239355296
aF0.010883754525820164
aF0.010094866123161853
aF0.015495050279432617
aF0.016989482300322895
aF0.0237160554450387
aF0.03974734303378818
aF0.03785700247585688
aF0.06421320967965982
aF0.11341342193027203
aF0.29182402614850467
aF0.11077440841379806
aF0.1951545682462465
aF0.974074165343584
aF0.35303834215025287
aF5.235213701679179
aF55.85069685236125
aF0.644593488531953
aF994.2489890733618
aF1.1935429173662884
aF46300.049341443824
aF2.2086255618096637
aF9118016.649395745
aF4.124847500268069
aF14603718630.619865
aF7.7039854889706305
aF1435549076895000.5
aF14.429357811313507
asg17
(lp54
F0.036771420207562217
aF0.039242371234449576
aF0.035793476594909744
aF0.038478543332657385
aF0.049300895649030514
aF0.0514548285922988
aF0.0684478678323004
aF0.08759850870756987
aF0.10292581657384747
aF0.1800127360551571
aF0.16429643221621631
aF0.27252173726689544
aF0.4085125122780511
aF1.0096037518955518
aF0.46956902788527755
aF0.8282386009862605
aF3.453728695504653
aF1.4863130560708093
aF17.815566334648228
aF154.3104035216676
aF2.710551221824194
aF2607.600609943767
aF4.97908124003355
aF153271.58228431846
aF9.224652295808777
aF34286962.13247675
aF17.187064055093213
aF54914482329.00732
aF32.10031208907524
aF5419843249788164.0
aF60.12302199312527
assg28
(dp55
g5
(lp56
I1000
aI1172
aI853
aI621
aI1610
aI452
aI2212
aI329
aI3039
aI240
aI4175
aI5736
aI174
aI127
aI7880
aI10826
aI92
aI14874
aI67
aI49
aI20434
aI36
aI28072
aI26
aI38566
aI19
aI52983
aI14
aI72790
aI10
aI100000
asg7
(lp57
F0.01747578512369907
aF0.018738944990591047
aF0.01690201034952755
aF0.018008876747005603
aF0.023627725182996825
aF0.023729498920433197
aF0.0329617785686641
aF0.04093663790773608
aF0.04966177761305134
aF0.0985526439780759
aF0.07929440166573652
aF0.13229058779228178
aF0.3745039630614939
aF2.3738767179483116
aF0.22799204524301167
aF0.40258257196441455
aF13.177767808245694
aF0.7251333404758442
aF57.46410511329842
aF323.11554728712315
aF1.3206144055221947
aF4180.2283001987735
aF2.428299846801086
aF212576.7949290666
aF4.496860440961062
aF49116996.76240724
aF8.37054546493337
aF83717795111.46806
aF15.640004680203754
aF8825747500188821.0
aF29.301993327601657
asg9
(lp58
F0.011795177640685958
aF0.012808094405005507
aF0.011328538792803818
aF0.01180049860483377
aF0.016368447643807238
aF0.01516806143677072
aF0.023131506866642972
aF0.025556369544606362
aF0.035113685493706144
aF0.06065794347834913
aF0.056299238965070275
aF0.09390966493176167
aF0.2299372132408622
aF1.5419722840822137
aF0.16282359109392455
aF0.2878508419054762
aF11.102940430796384
aF0.51793893527097
aF47.29734125031161
aF257.28922877003527
aF0.9455137936938874
aF3336.314847145696
aF1.7321407235354096
aF169502.24228967878
aF3.207666553454109
aF39164915.62172142
aF5.985346340542001
aF66754920817.28444
aF11.178028839678548
aF7037478222023949.0
aF20.935040605390675
asg11
(lp59
F0.02540380565308934
aF0.02716601877922572
aF0.024634873743561565
aF0.02647174874613012
aF0.034185806201583
aF0.03525852514179808
aF0.04758613319751055
aF0.06162603898226495
aF0.07138921472625377
aF0.15131485093740585
aF0.11380173305840148
aF0.18974481701213072
aF0.5874971391916446
aF3.2756863516649233
aF0.3271295199211643
aF0.5767152700386049
aF16.596064710567067
aF1.0374448199135047
aF73.4173832228187
aF425.3916885799213
aF1.8886254638998683
aF5489.90157517552
aF3.4686015096604392
aF279326.4143134461
aF6.4251978634619125
aF64540712.26272063
aF11.95222289602126
aF110006879070.09172
aF22.321564138240596
aF1.159721270357857e+16
aF41.80547915130783
asg13
(lp60
F0.017466756188087375
aF0.01872972319989381
aF0.0168917709848287
aF0.01795499341953905
aF0.023634497769995398
aF0.023658941220492335
aF0.032989781380839
aF0.04091416441458185
aF0.049766662900422275
aF0.09863236859361574
aF0.07933316687053509
aF0.1322744111280935
aF0.3751534855345834
aF2.375968579178312
aF0.22804767622524022
aF0.403158505195702
aF13.180970655616836
aF0.7232208220462414
aF57.58059437101392
aF323.5170164365508
aF1.3202623254681596
aF4175.155718507903
aF2.4247602199593428
aF212432.09192030117
aF4.504148852570459
aF49084217.665897936
aF8.378666647593997
aF83661946199.83081
aF15.647712278647756
aF8819861025750813.0
aF29.306194914449833
asg15
(lp61
F0.007914623897727093
aF0.008486905824951882
aF0.0075221167666815305
aF0.007855309621048334
aF0.010894026315857253
aF0.010073533566537752
aF0.015463960022268282
aF0.016941021202912798
aF0.023716925288482488
aF0.04006939974115639
aF0.03780721233673937
aF0.06407041789017028
aF0.15387154680129397
aF1.0580485079153419
aF0.11046059317160073
aF0.19527990095416817
aF9.93721615833613
aF0.3531351670147663
aF40.486355417119164
aF214.83551872739704
aF0.6446593386074998
aF2780.718945334365
aF1.1934366707612392
aF141068.18604082498
aF2.1992914319191694
aF32594988.293760348
aF4.12387499061267
aF55556761148.32515
aF7.701608387146942
aF5856938962412649.0
aF14.424142809455777
asg17
(lp62
F0.03676925505439291
aF0.03938389037601646
aF0.03580740275859673
aF0.03844759833155825
aF0.049347424687840584
aF0.051451449830973356
aF0.06839014806677556
aF0.09081263105672255
aF0.10292959462780985
aF0.2238792002270764
aF0.16408034238608418
aF0.27357574697845527
aF0.8727871630710395
aF4.370996449956097
aF0.46879626066423297
aF0.8277850588380643
aF21.458263980456646
aF1.486720684419787
aF96.05635507094861
aF567.1669243898774
aF2.71082801348074
aF7319.584807394643
aF4.978637808140674
aF372420.7712134355
aF9.237130501491505
aF86050944.71507631
aF17.183010549962585
aF146670148767.57596
aF32.09040489085374
aF1.5462350417552596e+16
aF60.10128789869629
asss.