(dp0
S'csccsc'
p1
(dp2
S'high'
p3
(dp4
S'ctau'
p5
(lp6
sS'limit'
p7
(lp8
sS'16.0'
p9
(lp10
sS'84.0'
p11
(lp12
sS'50.0'
p13
(lp14
sS'2.5'
p15
(lp16
sS'97.5'
p17
(lp18
ssS'comb'
p19
(dp20
g5
(lp21
sg7
(lp22
sg9
(lp23
sg11
(lp24
sg13
(lp25
sg15
(lp26
sg17
(lp27
ssS'low'
p28
(dp29
g5
(lp30
sg7
(lp31
sg9
(lp32
sg11
(lp33
sg13
(lp34
sg15
(lp35
sg17
(lp36
sssS'cscdt'
p37
(dp38
g3
(dp39
g5
(lp40
I1000
aI1172
aI853
aI621
aI1610
aI452
aI2212
aI329
aI3039
aI240
aI4175
aI5736
aI174
aI127
aI7880
aI10826
aI92
aI14874
aI67
aI49
aI20434
aI36
aI28072
aI26
aI38566
aI19
aI52983
aI14
aI72790
aI10
aI100000
asg7
(lp41
F0.2095559671077718
aF0.24891874901642366
aF0.1794205928864308
aF0.1420824132343378
aF0.36999861361142916
aF0.12494664730250604
aF0.5825980262298944
aF0.12642565634982775
aF0.9579071083070889
aF0.1527814688253221
aF1.6325471448666193
aF2.8584341395082973
aF0.23654064348502823
aF0.49513272837328554
aF5.114976021132249
aF9.266975121871
aF1.6302296604408402
aF16.947142854559978
aF9.12727335729287
aF83.60054267976301
aF31.353071835253953
aF1449.0501203329948
aF58.26440926085498
aF81086.40979421529
aF108.61508885155693
aF16336027.976452444
aF203.28717320433833
aF26268957902.478947
aF381.62304871183915
aF2583238228060965.5
aF716.5511293572815
asg9
(lp42
F0.15840967729853558
aF0.1881684789402522
aF0.13603943345264738
aF0.10744579768731392
aF0.27905393226889175
aF0.09441814308195827
aF0.440070474445655
aF0.0954106173420064
aF0.7254348094107412
aF0.11523199892448066
aF1.236677611123737
aF2.163874921846255
aF0.17770401528341054
aF0.37195908908618164
aF3.866356444064046
aF7.003212760561046
aF1.2094560614075966
aF12.848846015917536
aF6.677612154191109
aF66.30984847481993
aF23.710634949537916
aF1162.496329160108
aF44.05921578242023
aF61433.06125821565
aF82.00913888622655
aF11866436.71118469
aF153.7554470343309
aF19046073981.57165
aF288.06281391808835
aF1864209124091775.5
aF541.7255473849665
asg11
(lp43
F0.2994095058152683
aF0.3556565136508587
aF0.25641112085125295
aF0.20308287044080162
aF0.5289084274389634
aF0.1790586327431691
aF0.8322430431526119
aF0.18114084603020217
aF1.3711414514622944
aF0.21913984639202583
aF2.33483330758165
aF4.089931377469026
aF0.33908323609353636
aF0.7136323399825807
aF7.307784846836592
aF13.2367446589799
aF2.356894765273129
aF24.217882364750565
aF12.777002032289579
aF112.70803615509823
aF44.81537658045576
aF1928.0185772240202
aF83.0441006827643
aF112473.69149739853
aF155.43706804842543
aF23884045.11154001
aF290.61256251314614
aF38439272456.072395
aF544.4663856285445
aF3769901859066299.0
aF1022.7717105887293
asg13
(lp44
F0.20930517361767798
aF0.24862519023847518
aF0.17974758691033668
aF0.14196709268620575
aF0.36871126018496153
aF0.1251727035040502
aF0.5834134120902708
aF0.12627643472192845
aF0.9585099933375472
aF0.15276619900300936
aF1.6367490745118893
aF2.8591069935104065
aF0.23638082214852627
aF0.4961069452611527
aF5.10857935318914
aF9.253277247502595
aF1.6294489030591286
aF16.977055897160717
aF9.109575148565122
aF83.68668598147048
aF31.328632501066874
aF1448.7213704236106
aF58.21501543380428
aF81112.03768672778
aF108.35788157354322
aF16332299.989587529
aF203.1555842105224
aF26213951286.464207
aF380.61460832531935
aF2577920517312597.0
aF716.9765024824032
asg15
(lp45
F0.13081573351104872
aF0.155390743899047
aF0.11234224181896042
aF0.0887294329288786
aF0.23044453761560094
aF0.07774398381696868
aF0.3623544239154416
aF0.07867613803963902
aF0.599068745835967
aF0.09488213141202535
aF1.0197713960337749
aF1.7869418709440041
aF0.14589128866979356
aF0.3023151697685149
aF3.1928620957432123
aF5.783298279689122
aF0.9738503209689323
aF10.61065993572545
aF5.266473132764212
aF56.22699214380048
aF19.580395313166797
aF1007.3140778726668
aF36.38438464612768
aF47526.584582067066
aF67.72367598346452
aF9186918.744142985
aF126.97224013157648
aF14745347598.636116
aF237.8841302033246
aF1450080290988336.0
aF446.7099693200911
asg17
(lp46
F0.4376554965476239
aF0.5198733911038622
aF0.3754282167170789
aF0.29685210227753833
aF0.774152946043757
aF0.2617351709631104
aF1.2185413137800702
aF0.26592468953520954
aF2.0042370550498916
aF0.32170932234842425
aF3.4185816271125367
aF5.9783711097898244
aF0.4977927770267224
aF1.0521098799260318
aF10.68200029791407
aF19.34853257265999
aF3.463083597615978
aF35.45897925618288
aF17.84879209785289
aF155.35007296751203
aF65.50792997674864
aF2653.799384204212
aF121.59027523960327
aF157024.3734654223
aF226.83027737915384
aF35364242.58234682
aF424.79678214104706
aF56335213467.87468
aF795.8622524740636
aF5534272111637451.0
aF1497.5066693894835
assg19
(dp47
g5
(lp48
I1000
aI1172
aI853
aI621
aI1610
aI452
aI2212
aI329
aI3039
aI240
aI4175
aI5736
aI174
aI127
aI7880
aI10826
aI92
aI14874
aI67
aI49
aI20434
aI36
aI28072
aI26
aI38566
aI19
aI52983
aI14
aI72790
aI10
aI100000
asg7
(lp49
F0.016159922614105905
aF0.017269793846210288
aF0.01568307752520265
aF0.01676936526900134
aF0.021728089932506765
aF0.02217897283541336
aF0.030185615098881263
aF0.038163658772525304
aF0.045454551260099015
aF0.08374309158071509
aF0.07251038075632185
aF0.1209064451273479
aF0.19825823132965986
aF0.48559943808614114
aF0.20831392588561348
aF0.36778660258768864
aF1.6298296648018111
aF0.6611382804508873
aF9.103647366960033
aF83.52995962500574
aF1.2040428663339948
aF1439.1441505502057
aF2.2139494734892633
aF80653.15610400336
aF4.099939985701041
aF16250189.613369182
aF7.631776557752146
aF26163918150.585854
aF14.259768962958177
aF2563870496623958.5
aF26.716276497636027
asg9
(lp50
F0.010987723958016442
aF0.011741120790937141
aF0.010652242249582554
aF0.011435397258285544
aF0.014758662583472327
aF0.015111557441145368
aF0.020541621582954337
aF0.026107255387205354
aF0.031050016625462185
aF0.060574918219305746
aF0.049327068667945034
aF0.08240133304339026
aF0.1499117142632299
aF0.36447706063099344
aF0.1424025654590524
aF0.25067882588071955
aF1.206823623193235
aF0.45113674766999723
aF6.693435257245075
aF66.10096183835327
aF0.8228517648271075
aF1159.0643849538064
aF1.511502426042189
aF60828.581322653394
aF2.7948372352565594
aF11785959.081798702
aF5.19948470464241
aF18965932982.549282
aF9.711057269448801
aF1855984185462438.2
aF18.18850994678959
asg11
(lp51
F0.02402725309097348
aF0.025605875980066774
aF0.02335611296152367
aF0.025207385688295794
aF0.032186746944614375
aF0.03348810066900948
aF0.044557706740665746
aF0.05782907370621055
aF0.0669670421475065
aF0.11989746970736763
aF0.10670816250300237
aF0.17777375397905862
aF0.27997559064569444
aF0.6950200093667671
aF0.3054656770575626
aF0.5408179050770848
aF2.3582458888700684
aF0.9704997568812248
aF12.756011081391932
aF112.3710259632262
aF1.7650873975676182
aF1916.6410324768963
aF3.242301952357747
aF111383.46364185029
aF6.013229591494288
aF23722064.140025042
aF11.186946735954578
aF38069428667.445435
aF20.89381671343904
aF3743038821625959.5
aF39.13347255343237
asg13
(lp52
F0.01616584674282879
aF0.017274292657930505
aF0.01567226445915594
aF0.016824492517937353
aF0.021713894375683423
aF0.0222330960053633
aF0.030222155892162702
aF0.038191185023568976
aF0.0454217386063904
aF0.08381551052319106
aF0.07257315849996511
aF0.12123414516728682
aF0.19848507224443482
aF0.48451052019295715
aF0.20831461004295662
aF0.36881482428427703
aF1.625902330597645
aF0.6618395839743225
aF9.120529212799676
aF83.68412925546343
aF1.2037145816899402
aF1440.1722192539942
aF2.2111121203817166
aF80557.36785275457
aF4.111944438078615
aF16221535.080325095
aF7.649816576945155
aF26103649696.411915
aF14.287532534361455
aF2566546665649611.0
aF26.760106588380086
asg15
(lp53
F0.008082923371414395
aF0.008637146328965253
aF0.00783613222957797
aF0.008412246258968676
aF0.010856947187841711
aF0.01111654800268165
aF0.015111077946081351
aF0.019095592511784488
aF0.0227108693031952
aF0.04518179864140768
aF0.036286579249982555
aF0.06061707258364341
aF0.1217271732124073
aF0.297141217462087
aF0.10415730502147831
aF0.18440741214213852
aF0.9717306897712488
aF0.33091979198716126
aF5.237178883912314
aF55.89838321361034
aF0.6018572908449701
aF1001.3697462000428
aF1.1055560601908583
aF46886.90550804856
aF2.0559722190393077
aF9124613.482682865
aF3.8249082884725776
aF14683302954.2317
aF7.143766267180728
aF1443682499427906.2
aF13.380053294190043
asg17
(lp54
F0.03453111172975807
aF0.03685873338034628
aF0.03360807870350738
aF0.03635925269940589
aF0.04606726993857596
aF0.048548659147347455
aF0.06397592103403124
aF0.08333739794041531
aF0.09587328307153115
aF0.17209416207466188
aF0.1525657753237022
aF0.25457376095469403
aF0.4013212932792216
aF1.0172872296498339
aF0.4374298483918841
aF0.7721882313969565
aF3.459267622366067
aF1.389765172325522
aF17.846253616264363
aF155.11209647605045
aF2.527622468585932
aF2638.1388343549443
aF4.643008202320771
aF155736.1112564964
aF8.573971601249271
aF35024384.81320088
aF15.950923236730679
aF55818942081.75625
aF29.879570499976538
aF5488194975962550.0
aF55.963511507071054
assg28
(dp55
g5
(lp56
I1000
aI1172
aI853
aI621
aI1610
aI452
aI2212
aI329
aI3039
aI240
aI4175
aI5736
aI174
aI127
aI7880
aI10826
aI92
aI14874
aI67
aI49
aI20434
aI36
aI28072
aI26
aI38566
aI19
aI52983
aI14
aI72790
aI10
aI100000
asg7
(lp57
F0.016160007727068403
aF0.01729414885503054
aF0.01566989719304981
aF0.016787031453206997
aF0.02172892328857577
aF0.02215923450013631
aF0.030258412259721538
aF0.038264968365288775
aF0.045521210739978
aF0.09144952642873952
aF0.07262466467473261
aF0.12107281690318872
aF0.3408627006214062
aF2.1511111879489793
aF0.2086179514018918
aF0.3683470979120018
aF29.621769936751473
aF0.6621799296279179
aF109.50292166028747
aF575.7237080529574
aF1.205987208934992
aF7381.803016301531
aF2.217590124888244
aF374992.671257785
aF4.106772356207162
aF86640241.71180168
aF7.644619176164546
aF147674427268.33954
aF14.283940930225132
aF1.5568221858240244e+16
aF26.761799339258506
asg9
(lp58
F0.01098772395801644
aF0.011752649404732519
aF0.010655085805456682
aF0.011462131150870877
aF0.014763924240799083
aF0.015170731928681408
aF0.02058082261820208
aF0.02616567479369919
aF0.030936614065124057
aF0.062473110436121256
aF0.04935180214919208
aF0.08235632970414623
aF0.2338209667808067
aF1.4818901493552818
aF0.14175590107158656
aF0.250216722845967
aF25.216903442568114
aF0.44997130561506105
aF85.29559734225066
aF447.6734612918907
aF0.8202186003415476
aF5732.844920192976
aF1.514983726326095
aF291443.5767338152
aF2.802969843813613
aF67337819.41278031
aF5.197429936456459
aF114774343312.17978
aF9.706388327920642
aF1.2099811195807276e+16
aF18.283109429990613
asg11
(lp59
F0.024027254087490763
aF0.02563101882479154
aF0.023362347260656852
aF0.025188774006272268
aF0.032111639467395314
aF0.03351558435794758
aF0.04464273665763769
aF0.05826362352294688
aF0.06692450164933096
aF0.13983865973108658
aF0.10647224076054011
aF0.17767665344344685
aF0.5201362982238851
aF3.2589031967245274
aF0.3058260891035293
aF0.5398209284744582
aF36.145982070689094
aF0.9707741606889397
aF145.697500606511
aF761.8425543089817
aF1.7647405716731535
aF9785.247501280191
aF3.249769493228533
aF497457.64462484873
aF6.012609726808605
aF114937214.99942216
aF11.182524804756047
aF195905413758.99927
aF20.940693221001993
aF2.065286065085984e+16
aF39.218831534205925
asg13
(lp60
F0.016165846742828786
aF0.01729125429661796
aF0.01567644808159144
aF0.016767460426416827
aF0.02172163566462394
aF0.022192613564242517
aF0.030279830978504205
aF0.03827664426963996
aF0.04551593793489516
aF0.0913892358379831
aF0.07260954798961594
aF0.12116793335782433
aF0.3408142626873125
aF2.1522283669033717
aF0.20856040617428825
aF0.3681349485549859
aF29.64650875452325
aF0.6620267484911243
aF109.47771773250567
aF575.9015381443418
aF1.2067584005025067
aF7396.986231882322
aF2.216204765368459
aF376044.38188744907
aF4.100344457235914
aF86884771.87423158
aF7.646793469729042
aF148091261681.11148
aF14.280663287055656
aF1.5612167792731642e+16
aF26.745577223300554
asg15
(lp61
F0.008082923371414393
aF0.00864562714830898
aF0.00783822404079572
aF0.008383730213208413
aF0.01086081783231197
aF0.011096306782121259
aF0.015139915489252103
aF0.01913832213481998
aF0.02275796896744758
aF0.04569461791899155
aF0.03630477399480797
aF0.060583966678912166
aF0.1717384370572786
aF1.0929284675681186
aF0.10428020308714413
aF0.18406747427749295
aF21.77165486660301
aF0.33101337424556215
aF69.27886825260124
aF359.9384613402136
aF0.6033792002512534
aF4594.2219174581605
aF1.1081023826842296
aF233558.8153129078
aF2.050172228617957
aF53963588.78126102
aF3.823396734864521
aF91978557059.75282
aF7.140331643527828
aF9696619840016918.0
aF13.372788611650277
asg17
(lp62
F0.034531111404229084
aF0.03689492630087498
aF0.033617048315232774
aF0.03637489596349508
aF0.04603262081073151
aF0.048775057950776156
aF0.06391271928435276
aF0.08528502001820681
aF0.09568516881621456
aF0.20779137903611467
aF0.15246929980214685
aF0.2544347202366765
aF0.7843009041004344
aF4.8889230532062635
aF0.4379459748883168
aF0.7730288898149463
aF45.21708735962889
aF1.3860864684873808
aF193.2308464562911
aF1013.0548629672569
aF2.5236983888179543
aF12962.224029223014
aF4.640071411542031
aF656443.6599678186
aF8.610116339484891
aF151670814.38185203
aF15.991768082556996
aF258516213802.38312
aF29.811616952070867
aF2.725345480353397e+16
aF55.83276401914649
asss.