(dp0
S'csccsc'
p1
(dp2
S'high'
p3
(dp4
S'ctau'
p5
(lp6
sS'limit'
p7
(lp8
sS'16.0'
p9
(lp10
sS'84.0'
p11
(lp12
sS'50.0'
p13
(lp14
sS'2.5'
p15
(lp16
sS'97.5'
p17
(lp18
ssS'comb'
p19
(dp20
g5
(lp21
sg7
(lp22
sg9
(lp23
sg11
(lp24
sg13
(lp25
sg15
(lp26
sg17
(lp27
ssS'low'
p28
(dp29
g5
(lp30
sg7
(lp31
sg9
(lp32
sg11
(lp33
sg13
(lp34
sg15
(lp35
sg17
(lp36
sssS'cscdt'
p37
(dp38
g3
(dp39
g5
(lp40
I1000
aI1172
aI853
aI621
aI1610
aI452
aI2212
aI329
aI3039
aI240
aI4175
aI5736
aI174
aI127
aI7880
aI10826
aI92
aI14874
aI67
aI49
aI20434
aI36
aI28072
aI26
aI38566
aI19
aI52983
aI14
aI72790
aI10
aI100000
asg7
(lp41
F0.1748568233078508
aF0.2070431319542015
aF0.15103291886633324
aF0.11957775556965113
aF0.3034334063381822
aF0.1042334556832549
aF0.4701439738704359
aF0.10254456002225962
aF0.7635245722611816
aF0.11822910961008223
aF1.2852441330821345
aF2.2262464880100277
aF0.1690009235946858
aF0.31257487545863766
aF3.932880035769545
aF7.04242374360136
aF0.830639494884935
aF12.951149604430057
aF3.545867755513934
aF27.915525641858036
aF23.827378278720268
aF471.24806800880367
aF44.132547858105625
aF29475.55633111902
aF81.99568701423942
aF7536054.005012221
aF153.46405860136807
aF13026060519.880926
aF287.82141737480094
aF1299818262577952.8
aF540.2334543467324
asg9
(lp42
F0.1277505089346497
aF0.1514778542803773
aF0.11019215997317829
aF0.08675704100755795
aF0.22277518477425387
aF0.07521664871780791
aF0.34476671688730887
aF0.07335883827382246
aF0.5617810642367438
aF0.08329730031794808
aF0.9430780553515622
aF1.6413651325362804
aF0.11572029579206242
aF0.20410366260175644
aF2.8991866663696757
aF5.2279595394661635
aF0.5380075310037274
aF9.524752814263717
aF2.310158439644923
aF18.287723663295434
aF17.515275434847243
aF308.25807103853117
aF32.516639397593124
aF19222.71713808484
aF60.52449075952497
aF4925867.220558473
aF113.08061622151257
aF8508839860.491631
aF211.85759661981797
aF849077950715804.8
aF397.7016388819173
asg11
(lp43
F0.25767518537672374
aF0.30417118358060224
aF0.2226292038542673
aF0.17636019190983768
aF0.4446057886113688
aF0.15418007932540248
aF0.6887294848669334
aF0.1527470386095971
aF1.117374401073483
aF0.17806767653213165
aF1.878835945001358
aF3.2557771333271477
aF0.25745826639001773
aF0.4869990750425483
aF5.771696493596956
aF10.37952260309574
aF1.3514747590980367
aF18.91031986346341
aF5.808553196605272
aF45.468249027881704
aF34.86938438751164
aF766.4132999007804
aF64.38214262080916
aF47944.67813839351
aF119.83699632933211
aF12294551.236218553
aF223.89682624340634
aF21155288124.13488
aF420.6193215895453
aF2111038517794480.5
aF789.5916701148599
asg13
(lp44
F0.1752471501976222
aF0.20686948108107875
aF0.15100270567083918
aF0.1192973025487058
aF0.3032022451687469
aF0.10401329950983834
aF0.46968427135755775
aF0.10249530604002108
aF0.762001900526104
aF0.11822097785943012
aF1.28477868530994
aF2.2263536991037682
aF0.16913879533049206
aF0.312570398473354
aF3.9360519010441473
aF7.097687197100897
aF0.8292300459045222
aF12.931185789600326
aF3.5466300482704667
aF27.89814380814082
aF23.77943923802927
aF470.2514186122249
aF44.145891605085
aF29417.61606485915
aF82.17047204209953
aF7543619.062637755
aF153.5227723047118
aF12980338200.586115
aF287.62635590148307
aF1295278691296810.5
aF539.935668830074
asg15
(lp45
F0.1019993178884598
aF0.1204045026604716
aF0.0872984392159539
aF0.06850274794788966
aF0.17765756552856266
aF0.05850748097428407
aF0.2770403319335595
aF0.05645249277985536
aF0.4494620585134441
aF0.06234309379305885
aF0.757818677663285
aF1.3132008147057384
aF0.08258730240746683
aF0.14529639616534815
aF2.3370308162449622
aF4.214251773278658
aF0.38546240415093025
aF7.677891562575194
aF1.6624828351267813
aF13.077254910066008
aF14.11904204757988
aF220.4303524744804
aF26.211623140519215
aF13789.507530402727
aF48.7887177749966
aF3506604.1736480184
aF91.15414605592262
aF6084533531.524741
aF170.7781488165056
aF607161886545379.9
aF320.5868033678564
asg17
(lp46
F0.38561219207272773
aF0.4539245583952032
aF0.3325870412100856
aF0.26446589694835193
aF0.6627869808895744
aF0.23143522476259315
aF1.0267094716287126
aF0.23034772351713967
aF1.6657032151888993
aF0.26878019628874394
aF2.7977682181902046
aF4.834439310189911
aF0.39191266040888284
aF0.7513285350032962
aF8.555622730880081
aF15.412347773973279
aF2.1284895034203304
aF28.079559860088935
aF9.424096002348103
aF73.45496813689668
aF51.68832321713421
aF1238.1576963445234
aF95.76414303838779
aF77455.68680867607
aF178.24953924512118
aF19862119.15443414
aF333.03159574071884
aF34176837213.512543
aF624.5693215567311
aF3410429550794274.0
aF1172.4490730640316
assg19
(dp47
g5
(lp48
I1000
aI1172
aI853
aI621
aI1610
aI452
aI2212
aI329
aI3039
aI240
aI4175
aI5736
aI174
aI127
aI7880
aI10826
aI92
aI14874
aI67
aI49
aI20434
aI36
aI28072
aI26
aI38566
aI19
aI52983
aI14
aI72790
aI10
aI100000
asg7
(lp49
F0.006622802647774996
aF0.007121971528724586
aF0.006405330423009928
aF0.006817164359761319
aF0.00896767880419408
aF0.00894062025629422
aF0.012554066532763765
aF0.015176830641031815
aF0.018880885769438246
aF0.034133644664674244
aF0.030233929349960064
aF0.050467624961008775
aF0.09686813704630508
aF0.2667420940978004
aF0.08683323269177061
aF0.15378645104858882
aF0.8167257505434536
aF0.2758246580183124
aF3.546535416213276
aF27.823931380670004
aF0.503703772494662
aF469.0159255071148
aF0.9261478863135707
aF29204.91045509784
aF1.715420786906433
aF7431737.837953301
aF3.1937178139651983
aF12837597720.171711
aF5.968923069912123
aF1283387666220191.2
aF11.16097268645937
asg9
(lp50
F0.0047257892205906935
aF0.0050855748180542604
aF0.0045653070884202895
aF0.004841338461044777
aF0.006421164378711596
aF0.006325782526120419
aF0.008980488493199622
aF0.010649680078934298
aF0.01354037267441428
aF0.023723495284373158
aF0.021687595955719584
aF0.03619013841996781
aF0.0645209981848713
aF0.1761744591278168
aF0.06237868333972128
aF0.11001490220655478
aF0.5311379673790222
aF0.19872936720052534
aF2.312175363899353
aF18.168709914717848
aF0.36193814222038917
aF306.8222905739849
aF0.6655344890787577
aF19142.440351580037
aF1.2324934669744496
aF4884933.063600421
aF2.294214422133611
aF8416583525.942495
aF4.286676887338381
aF841208227205418.6
aF8.031260306623606
asg11
(lp51
F0.009941375956129704
aF0.010660778397208269
aF0.00962932858226332
aF0.010274742193714114
aF0.01346054596145304
aF0.013498884849585101
aF0.018759915998874607
aF0.02296628404643055
aF0.02828534930564413
aF0.051731140054970745
aF0.045184077556385385
aF0.07539876823981952
aF0.14759121933134958
aF0.41339728929309855
aF0.1299601519523815
aF0.22949871030307165
aF1.3224669655224932
aF0.41369508548914946
aF5.785325838113709
aF45.460176987520306
aF0.7534469253181019
aF762.8435455605847
aF1.3854436877343725
aF47127.703550796396
aF2.5656826535875235
aF12026454.46510207
aF4.7758680303013366
aF20721195918.52202
aF8.923578766204239
aF2071011543651150.5
aF16.718681118637825
asg13
(lp52
F0.0066353012760440415
aF0.007115461812041077
aF0.006409974405405606
aF0.006821507511675062
aF0.008984146642255405
aF0.008962049453755627
aF0.012521174663652676
aF0.015167277330777083
aF0.018878858471415502
aF0.03407431811511965
aF0.030238241182751226
aF0.05045861865992278
aF0.09670771514600048
aF0.26669521743972563
aF0.0869723723800522
aF0.15358590301228642
aF0.815420207790283
aF0.27611787247399994
aF3.549726495701556
aF27.89319183309007
aF0.5028828461786683
aF468.0611181344663
aF0.9247046361148545
aF29202.024461851706
aF1.7124468252128038
aF7452024.517134944
aF3.187619495610336
aF12839600045.534622
aF5.9559798271838575
aF1283273332824355.8
aF11.158766016258578
asg15
(lp53
F0.0036545995309461322
aF0.003946857723866534
aF0.0035304937154773067
aF0.0037305119204472993
aF0.0049833938406260445
aF0.004796096777986409
aF0.006994249909774737
aF0.00793912172782863
aF0.010545612349267253
aF0.017303364667834196
aF0.01689089253567744
aF0.02818586901706624
aF0.04646503501155492
aF0.12709693956111923
aF0.04858222363416979
aF0.08639207044441112
aF0.3822282224016952
aF0.15531630326662496
aF1.6639342948601044
aF13.07493367176097
aF0.2828716009755009
aF219.4036491255311
aF0.5201463578146057
aF13688.448966492988
aF0.9632513391822022
aF3493136.492407005
aF1.793035966280814
aF6018562521.344355
aF3.3502386527909196
aF601534374761416.8
aF6.276805884145451
asg17
(lp54
F0.015099161321152594
aF0.01619180533608707
aF0.014637612716248253
aF0.015631652429963568
aF0.02044414804259691
aF0.02053675736684987
aF0.028492939918646546
aF0.03499612863582292
aF0.04296036071760643
aF0.07828109651455795
aF0.06838439763338366
aF0.11411319268264006
aF0.21911603726794104
aF0.6277198491909637
aF0.19668978959493397
aF0.3473376443754818
aF2.0727784589864724
aF0.625000758912514
aF9.424585772444884
aF73.1344334384667
aF1.138289809673035
aF1222.071029754658
aF2.093095583286174
aF75451.22402504533
aF3.8761727220540876
aF19088137.162307195
aF7.215268559149075
aF32888249926.569065
aF13.481531922233884
aF3315679139865827.5
aF25.258188346158207
assg28
(dp55
g5
(lp56
I1000
aI1172
aI853
aI621
aI1610
aI452
aI2212
aI329
aI3039
aI240
aI4175
aI5736
aI174
aI127
aI7880
aI10826
aI92
aI14874
aI67
aI49
aI20434
aI36
aI28072
aI26
aI38566
aI19
aI52983
aI14
aI72790
aI10
aI100000
asg7
(lp57
F0.006624785539258031
aF0.007101364393179825
aF0.006406076419189874
aF0.006837037699574911
aF0.008992968161972259
aF0.008963601894484335
aF0.012551524714359453
aF0.015307872753084225
aF0.018930826900907995
aF0.03585938852031272
aF0.030190843471026026
aF0.05048930594157539
aF0.12578209166839155
aF0.6615223517797408
aF0.08702945729140345
aF0.15373319631007484
aF6.1986865917274425
aF0.27645819848117464
aF42.65861534471549
aF247.9578456745684
aF0.5024438356217554
aF2770.8880942644964
aF0.9261349739747253
aF139052.22376813123
aF1.7152083358010546
aF32107003.475632373
aF3.1939404989274727
aF54724181649.92422
aF5.952855396718798
aF5769164985799157.0
aF11.172580141824536
asg9
(lp58
F0.004727880792268853
aF0.005085116092758005
aF0.004580870928006824
aF0.004856451997712974
aF0.006426796525827812
aF0.00634766680888162
aF0.00898699669878611
aF0.010749740046979634
aF0.013562223004154585
aF0.024739865959574926
aF0.021637527910833194
aF0.036174231080368095
aF0.08446010627276333
aF0.4228671681242173
aF0.06253098952985152
aF0.11029399687408736
aF4.002450548905517
aF0.1979738529684389
aF35.387995856481865
aF191.13394141747503
aF0.3604833217099633
aF2127.5754779373883
aF0.6659174408368861
aF106322.78880691252
aF1.2330624486368496
aF24566101.91203449
aF2.2950846959402336
aF41871848207.461075
aF4.288047210303393
aF4414239663813242.5
aF8.033479969992813
asg11
(lp59
F0.009945775687894199
aF0.010659817252361798
aF0.009648100426462329
aF0.010291328802092896
aF0.01347235186854752
aF0.013569755818727176
aF0.018773511708566042
aF0.023243090066591546
aF0.02833099616312113
aF0.054751531349161234
aF0.04520001772817437
aF0.07556666441219732
aF0.195286899583207
aF1.0552573216184784
aF0.13017080810239032
aF0.22978722258662926
aF8.995001066622562
aF0.41298717160062876
aF54.79611825092513
aF331.4397138371544
aF0.7519931809678474
aF3806.4288367527643
aF1.3825528634774618
aF190221.27895237523
aF2.560038098817395
aF43951022.89000323
aF4.777679853940916
aF74912599711.69165
aF8.926431693633486
aF7897482034427847.0
aF16.723302402549777
asg13
(lp60
F0.006638237972451186
aF0.007114819988364402
aF0.006422470416264231
aF0.006832519817142189
aF0.008992026838528
aF0.008961669366369362
aF0.012530248822475672
aF0.015309782765100342
aF0.018909323606507423
aF0.03578195302627786
aF0.030168433094297595
aF0.0504364396239257
aF0.1256624029397888
aF0.6603999316125418
aF0.08688159196549247
aF0.15377898432346587
aF6.201640797547569
aF0.2763806754460551
aF42.709065899053364
aF247.56223535980956
aF0.5032514266271335
aF2776.9923625195115
aF0.9252367156268267
aF138776.5442591081
aF1.7132373777532346
aF32064609.737245414
aF3.188828668443418
aF54652727427.28877
aF5.957883776595217
aF5761633352074580.0
aF11.161850053287164
asg15
(lp61
F0.00365621700826413
aF0.003946501712295879
aF0.0035122885088945013
aF0.0037098447444639236
aF0.004987764886996
aF0.004830899892808485
aF0.00699931867817977
aF0.008013714416107211
aF0.010562629983322505
aF0.01789097651313893
aF0.0168518981737678
aF0.028173479946177245
aF0.058904251378026004
aF0.2940843445462101
aF0.04887089548058951
aF0.08589997952443601
aF2.8101184863887423
aF0.155464129938406
aF31.281054125283223
aF153.7593571180067
aF0.2830789274777626
aF1724.772600158603
aF0.5204456525400901
aF86193.24428593043
aF0.9636960249861944
aF19915128.70399227
aF1.7937161259994225
aF33944467425.542633
aF3.3513096243348097
aF3578514464765071.0
aF6.278540654974029
asg17
(lp62
F0.015105844593089328
aF0.016190345314232947
aF0.014627547549438343
aF0.015656887156135824
aF0.020407895491474346
aF0.020677655889358645
aF0.028513589099046662
aF0.03553638212690164
aF0.042801800505076815
aF0.08410233480717463
aF0.06846890793653268
aF0.11416433328420703
aF0.30184072913290977
aF1.658278563521144
aF0.19665898495947284
aF0.3477743015525649
aF12.655204016329003
aF0.6250405202553468
aF72.68529833371673
aF448.30153627546406
aF1.1381133395473753
aF5273.920776565999
aF2.092441655558573
aF263557.2579861968
aF3.8745211841730183
aF60895453.665191434
aF7.218005688212857
aF103793642211.67998
aF13.485841812306333
aF1.0942197011040884e+16
aF25.265169613183716
asss.